(dp1
S'output'
p2
S"<type 'exceptions.AttributeError'> 'Table' object has no attribute 'select'"
p3
sS'layer'
p4
S'/home/sourav/Documents/Project_OJ/Redefined/applications/oj/controllers/default.py'
p5
sS'code'
p6
S'import os\nimport json\ndef index():\n    """\n    example action using the internationalization operator T and flash\n    rendered by views/default/index.html or views/generic.html\n\n    if you need a simple wiki simply replace the two lines below with:\n    return auth.wiki()\n    """\n    if auth.is_logged_in():\n        rproblems=yousuck()\n    else:\n        rproblems=[]\n\n    recentques=db.post_question.select(orderby=db.post_question.pub_date)\n    return dict(rproblems=rproblems,recentblog=recentques)\n\n\ndef user():\n    return dict(form=auth())\n\n\n@cache.action()\ndef download():\n    return response.download(request, db)\n\n\ndef call():\n    return service()\n\ndef problem_upload():\n    form=SQLFORM(db.problems)\n    form.process()\n    return dict(form=form)\n\n@auth.requires_login()\ndef submit() :\n    pid=request.args[0]\n    form=SQLFORM.factory(\n        Field(\'language\',requires=IS_IN_SET([\'C\', \'CPP\', \'Java\'])),\n        Field(\'Upload_code\',\'upload\',uploadfolder=os.path.join(request.folder,\'uploads\'))\n    )\n    if form.process().accepted:\n        # sid=db.livesubm.insert(uid=auth.user_id,pid=pid,lang=str(form.vars.language),status="Queued",filename=form.vars.Upload_code)\n        sid = scheduler.queue_task(\'check_submission\', pvars={\'uid\':auth.user_id, \'pid\':pid,\'language\':form.vars.language,\'filename\':form.vars.Upload_code},immediate=True).id\n        redirect(URL(\'default\',status,args=sid))\n\n    elif form.errors:\n        response.flash = \'form has errors\'\n    return dict(form=form)\n\ndef status():\n    sid=request.args[0]\n    # aa=db.livesubm.insert(pid=1,uid=1,lang="fdas",status="11",score=10,time="fda",memory="Fdas")# record=db.livesubm[aa]\n    return locals()\n\ndef statusajax():\n    sub_id=request.vars[\'sid\']\n    schd_stat=scheduler.task_status(int(sub_id),output=True)\n    result={}\n    if schd_stat.scheduler_task.status == "COMPLETED":\n        result[\'status\']=\'DONE\'\n        info=db(db.livesubm.sid==sub_id).select()\n        if(len(info)==1):\n            result[\'result\']=info[0].status\n            if(info[0].time != None):\n                result[\'time\']=info[0].time\n            if(info[0].memory!=None):\n                result[\'memory\']=info[0].memory\n\n    elif schd_stat.scheduler_task.status == "FAILED":\n        result[\'status\']=\'FAILED\'\n    else:\n        result[\'status\']="RUNNING"\n    return json.dumps(result)\n\ndef problem():\n    pid=request.args[0]\n    form=SQLFORM.factory(\n        Field(\'language\',requires=IS_IN_SET([\'C\', \'CPP\', \'Java\'])),\n        Field(\'Upload_code\',\'upload\',uploadfolder=os.path.join(request.folder,\'uploads\')),\n        # formstyle="bootstrap3_stacked"\n    )\n    if form.process().accepted:\n        # sid=db.livesubm.insert(uid=auth.user_id,pid=pid,lang=str(form.vars.language),status="Queued",filename=form.vars.Upload_code)\n        sid = scheduler.queue_task(\'check_submission\', pvars={\'uid\':auth.user_id, \'pid\':pid,\'language\':form.vars.language,\'filename\':form.vars.Upload_code},immediate=True).id\n        redirect(URL(\'default\',status,args=sid))\n\n    elif form.errors:\n        response.flash = \'form has errors\'\n    problem=db.problems(pid)\n    if problem.contest_id.start_time+datetime.timedelta(hours=problem.contest_id.duration)<datetime.datetime.now():\n    # if 1==1:\n        archive=True\n    else:\n        archive=False\n    return dict(archive=archive,problems=problem,form=form)\n\nresponse._vars=response._caller(index)\n'
p7
sS'snapshot'
p8
(dp9
sS'traceback'
p10
S'Traceback (most recent call last):\n  File "/home/sourav/Documents/Project_OJ/Redefined/gluon/restricted.py", line 227, in restricted\n    exec ccode in environment\n  File "/home/sourav/Documents/Project_OJ/Redefined/applications/oj/controllers/default.py", line 100, in <module>\n  File "/home/sourav/Documents/Project_OJ/Redefined/gluon/globals.py", line 412, in <lambda>\n    self._caller = lambda f: f()\n  File "/home/sourav/Documents/Project_OJ/Redefined/applications/oj/controllers/default.py", line 16, in index\n    recentques=db.post_question.select(orderby=db.post_question.pub_date)\nAttributeError: \'Table\' object has no attribute \'select\'\n'
p11
s.