(dp1
S'output'
p2
S"<type 'exceptions.AttributeError'> 'NoneType' object has no attribute 'first_name'"
p3
sS'layer'
p4
S'/home/sourav/Documents/Project_OJ/Redefined/applications/oj/views/contest/all.html'
p5
sS'code'
p6
S'response.write(\'<!DOCTYPE html>\\n<!--[if (gt IE 9)|!(IE)]><!--> <html class="no-js" lang="\', escape=False)\nresponse.write(T.accepted_language or \'en\')\nresponse.write(\'"> <!--<![endif]-->\\n  <head>\\n    <meta charset="utf-8">\\n    <!-- www.phpied.com/conditional-comments-block-downloads/ -->\\n    <!-- Always force latest IE rendering engine\\n         (even in intranet) & Chrome Frame\\n         Remove this if you use the .htaccess -->\\n    <meta http-equiv="X-UA-Compatible" content="IE=edge\', escape=False)\nresponse.write(not request.is_local and \',chrome=1\' or \'\')\nresponse.write(\'">\\n    <!--  Mobile Viewport Fix\\n          j.mp/mobileviewport & davidbcalhoun.com/2010/viewport-metatag\\n          device-width: Occupy full width of the screen in its current orientation\\n          initial-scale = 1.0 retains dimensions instead of zooming out if page height > device height\\n          user-scalable = yes allows the user to zoom in -->\\n    <meta name="viewport" content="width=device-width, initial-scale=1.0">\\n    <title>\', escape=False)\nresponse.write(response.title or request.application)\nresponse.write(\'</title>\\n    <!-- http://dev.w3.org/html5/markup/meta.name.html -->\\n    <meta name="application-name" content="\', escape=False)\nresponse.write(request.application)\nresponse.write(\'">\\n    <!-- Speaking of Google, don\\\'t forget to set your site up:\\n         http://google.com/webmasters -->\\n    <meta name="google-site-verification" content="">\\n    <!-- include stylesheets -->\\n    <link rel="stylesheet" href="https://maxcdn.bootstrapcdn.com/bootstrap/4.0.0-alpha/css/bootstrap.min.css">\\n    <script src="https://maxcdn.bootstrapcdn.com/bootstrap/4.0.0-alpha/js/bootstrap.min.js"></script>\\n    <link rel="stylesheet" href="\', escape=False)\nresponse.write(URL(\'static\',\'css/bootstrap.min.css\'))\nresponse.write(\'"/>\\n    <link rel="stylesheet" href="\', escape=False)\nresponse.write(URL(\'static\',\'css/web2py-bootstrap3.css\'))\nresponse.write(\'"/>\\n    <link rel="stylesheet" href="\', escape=False)\nresponse.write(URL(\'static\',\'css/custom.css\'))\nresponse.write(\'"/>\\n    <link rel="stylesheet" href="\', escape=False)\nresponse.write(URL(\'static\',\'css/innermenu.css\'))\nresponse.write(\'"/>\\n    <link rel="shortcut icon" href="\', escape=False)\nresponse.write(URL(\'static\',\'images/favicon.ico\'))\nresponse.write(\'" type="image/x-icon">\\n    <link rel="apple-touch-icon" href="\', escape=False)\nresponse.write(URL(\'static\',\'images/favicon.png\'))\nresponse.write(\'">\\n    <!-- All JavaScript at the bottom, except for Modernizr which enables\\n         HTML5 elements & feature detects -->\\n    <script src="\', escape=False)\nresponse.write(URL(\'static\',\'js/modernizr-2.8.3.min.js\'))\nresponse.write(\'"></script>\\n    <!--[if lt IE 9]>\\n        <script src="\', escape=False)\nresponse.write(URL(\'static\',\'js/respond-1.4.2.min.js\'))\nresponse.write(\'"></script>\\n        <![endif]-->\\n    <!-- Favicons -->\\n    \', escape=False)\nresponse.write(\'<script type="text/javascript"><!--\\n    // These variables are used by the web2py_ajax_init function in web2py_ajax.js (which is loaded below).\\n    var w2p_ajax_confirm_message = "\', escape=False)\nresponse.write(T(\'Are you sure you want to delete this object?\'))\nresponse.write(\'";\\n    var w2p_ajax_disable_with_message = "\', escape=False)\nresponse.write(T(\'Working...\'))\nresponse.write(\'";\\n    var w2p_ajax_date_format = "\', escape=False)\nresponse.write(T(\'%Y-%m-%d\'))\nresponse.write(\'";\\n    var w2p_ajax_datetime_format = "\', escape=False)\nresponse.write(T(\'%Y-%m-%d %H:%M:%S\'))\nresponse.write(\'";\\n    var ajax_error_500 = \\\'\', escape=False)\nresponse.write(T.M(\'An error occured, please [[reload %s]] the page\') % URL(args=request.args, vars=request.get_vars))\nresponse.write("\'\\n    //--></script>\\n", escape=False)\nresponse.files.insert(0,URL(\'static\',\'js/jquery.js\'))\nresponse.files.insert(1,URL(\'static\',\'css/calendar.css\'))\nresponse.files.insert(2,URL(\'static\',\'js/calendar.js\'))\nresponse.files.insert(3,URL(\'static\',\'js/web2py.js\'))\nresponse.include_meta()\nresponse.include_files()\nresponse.write(\'\\n\', escape=False)\nresponse.write(\' <!-- this includes jquery.js, calendar.js/.css and web2py.js -->\\n    \', escape=False)\nresponse.write(\'\\n    \', escape=False)\n# using sidebars need to know what sidebar you want to use\nmc0 = \'col-md-12\'\nmc1 = \'col-md-9\'\nmc2 = \'col-md-6\'\nleft_sidebar_enabled = globals().get(\'left_sidebar_enabled\', False)\nright_sidebar_enabled = globals().get(\'right_sidebar_enabled\', False)\nmiddle_column = {0: mc0, 1: mc1, 2: mc2}[\n(left_sidebar_enabled and 1 or 0)+(right_sidebar_enabled and 1 or 0)]\nresponse.write(\'\\n  </head>\\n  <body>\\n    <!--[if lt IE 8]><p class="browserupgrade">You are using an <strong>outdated</strong> browser. Please <a href="http://browsehappy.com/">upgrade your browser</a> to improve your experience.</p><![endif]-->\\n    <div class="w2p_flash alert alert-dismissable">\', escape=False)\nresponse.write(response.flash or \'\')\nresponse.write(\'</div>\\n    <!-- Navbar ======================================= -->\\n    <!-- <nav class="navbar navbar-default navbar-fixed-top" role="navigation"> -->\\n\\n      <div class="container-fluid" role="header">\\n        <div class="row" role="logo">\\n        <div class="col-md-4">\\n          <img src="\', escape=False)\nresponse.write(URL(\'static\',\'images/logo.png\'))\nresponse.write(\'" class="logo">\\n        </div>\\n        <div class="col-md-8">\\n              <!-- <center>ONLINE JUDGE</center> -->\\n          </div>\\n        </div>\\n          <nav class="menu navbar navbar-default">\\n\\n            <div class="collapse navbar-collapse navbar-ex1-collapse">\\n              <ul class="nav navbar-nav navbar-right">\\n                \', escape=False)\nresponse.write(\'auth\' in globals() and auth.navbar(\'Welcome\',mode=\'dropdown\') or \'\')\nresponse.write(\'\\n              </ul>\\n              \', escape=False)\nresponse.write(MENU(response.menu, _class=\'nav navbar-nav\',li_class=\'\',ul_class=\'dropdown-menu\'))\nresponse.write(\'\\n              <!-- <ul class="nav navbar-nav">\\n                <li><a href="\', escape=False)\nresponse.write(URL(\'default\',\'index\'))\nresponse.write(\'">HOME</a></li>\\n\\n                <li><a href="\', escape=False)\nresponse.write(URL(\'contest\',\'all\'))\nresponse.write(\'">Compete</a></li>\\n                <li><a href="\', escape=False)\nresponse.write(URL(\'problemset\',\'problemset\'))\nresponse.write(\'">Practice</a></li>\\n              </ul> -->\\n            </div>\\n          </nav>\\n      </div>\\n    <!-- </nav> -->\\n    <!-- Masthead ===================================== -->\\n    \', escape=False)\nresponse.write(\'\\n    \', escape=False)\nresponse.write(\'\\n    <!-- Main ========================================= -->\\n    <!-- Begin page content -->\\n    <div class="container-fluid main-container">\\n        \', escape=False)\nresponse.write(\'\\n        \', escape=False)\nresponse.write(\'\\n\\n<div class="row innerheadercontainer">\\n  <div class="col-md-12 innerheader">\\n    <div class="row">\\n      <div class="col-md-5">\\n        <div class="row pagepath">\\n          <div class="col-md-12">\\n            <a href="">Home </a>>> Compete\\n          </div>\\n        </div>\\n        <div class="row pagetitle">\\n          <div class="col-md-12">\\n            <h3>All Contests</h3>\\n          </div>\\n        </div>\\n      </div>\\n    </div>\\n  </div>\\n</div>\\n<div class="row">\\n    <div align="col-md-8">\\n      <img width="700px" float="left" height="150px"\\n      src="\', escape=False)\nresponse.write(URL(\'static\', \'images/Compete.png\'))\nresponse.write(\'" />\\n    </div>\\n\\n</div>\\n<br/>\\n<div class="row">\\n  <div class="col-md-12">\\n\\n  <h3>Upcoming Contests</h3>\\n  \', escape=False)\nif len(futurecontests)==0 :\n    response.write(\'\\n  <h4 align="center">No Upcoming Contests</h4>\\n  \', escape=False)\nelse:\n    response.write(\'\\n  <table class="table table-striped">\\n    <thead class="thead-inverse">\\n      <tr>\\n        <th>Contest Name</th>\\n        <th>Author</th>\\n        <th>Start Time</th>\\n        <th>\\n          End Time\\n        </th>\\n      </tr>\\n    </thead>\\n    <tbody>\\n    \', escape=False)\n    for p in futurecontests:\n        response.write(\'\\n      <tr>\\n        <td><a href=\', escape=False)\n        response.write(URL(\'contest\',\'view\',args=p.id))\n        response.write(\'>\', escape=False)\n        response.write(p.Contest_Name)\n        response.write(\'</a></td>\\n        <td>\', escape=False)\n        response.write(p.author.first_name)\n        response.write(\'</td>\\n        <td>\', escape=False)\n        response.write(p.start_time)\n        response.write(\'</td>\\n        <td>\\n        \', escape=False)\n        response.write((p.start_time + datetime.timedelta(hours=p.duration)))\n        response.write(\'\\n        </td>\\n      </tr>\\n      \', escape=False)\n        pass\n    response.write(\'\\n      \', escape=False)\n    pass\nresponse.write(\'\\n    </tbody>\\n    </table>\\n  </div>\\n  </div>\\n<br/>\\n  <div class="row">\\n    <div class="col-md-12">\\n\\n    <h3>Running Contests</h3>\\n    \', escape=False)\nif len(presentcontests)==0 :\n    response.write(\'\\n    <h4 align="center">No Contest Running Right Now</h4>\\n    \', escape=False)\nelse:\n    response.write(\'\\n    <table class="table table-striped">\\n      <thead class="thead-inverse">\\n        <tr>\\n          <th>Contest Name</th>\\n          <th>Author</th>\\n          <th>Start Time</th>\\n          <th>\\n            End Time\\n          </th>\\n        </tr>\\n      </thead>\\n      <tbody>\\n      \', escape=False)\n    for p in presentcontests:\n        response.write(\'\\n        <tr>\\n          <td><a href=\', escape=False)\n        response.write(URL(\'contest\',\'view\',args=p.id))\n        response.write(\'>\', escape=False)\n        response.write(p.Contest_Name)\n        response.write(\'</td>\\n          <td>\', escape=False)\n        response.write(p.author.first_name)\n        response.write(\'</td>\\n          <td>\', escape=False)\n        response.write(p.start_time)\n        response.write(\'</td>\\n          <td>\\n          \', escape=False)\n        response.write((p.start_time + datetime.timedelta(hours=p.duration)))\n        response.write(\'\\n          </td>\\n        </tr>\\n        \', escape=False)\n        pass\n    response.write(\'\\n        \', escape=False)\n    pass\nresponse.write(\'\\n      </tbody>\\n      </table>\\n    </div>\\n    </div>\\n  <br/>\\n    <div class="row">\\n      <div class="col-md-12">\\n\\n      <h3>Past Contests</h3>\\n      <table class="table table-striped">\\n        <thead class="thead-inverse">\\n          <tr>\\n            <th>Contest Name</th>\\n            <th>Author</th>\\n            <th>Start Time</th>\\n            <th>\\n              End Time\\n            </th>\\n          </tr>\\n        </thead>\\n        <tbody>\\n        \', escape=False)\nfor p in pastcontests:\n    response.write(\'\\n          <tr>\\n            <td><a href=\', escape=False)\n    response.write(URL(\'contest\',\'view\',args=p.id))\n    response.write(\'>\', escape=False)\n    response.write(p.Contest_Name)\n    response.write(\'</td>\\n            <td>\', escape=False)\n    response.write(p.author.first_name)\n    response.write(\'</td>\\n            <td>\', escape=False)\n    response.write(p.start_time)\n    response.write(\'</td>\\n            <td>\\n            \', escape=False)\n    response.write((p.start_time + datetime.timedelta(hours=p.duration)))\n    response.write(\'\\n            </td>\\n          </tr>\\n          \', escape=False)\n    pass\nresponse.write(\'\\n        </tbody>\\n        </table>\\n      </div>\\n      </div>\\n\', escape=False)\nresponse.write(\'\\n        \', escape=False)\nresponse.write(\'\\n    </div>\\n\\n    \', escape=False)\nresponse.write(\' <!-- this is default footer -->\\n    <footer class="footer">\\n      <div class="container-fluid footer-container">\\n        <div class="col-md-4 col-sm-4 col-md-offset-5">\', escape=False)\nresponse.write(T(\'Copyright\'))\nresponse.write(\' &#169; \', escape=False)\nresponse.write(request.now.year)\nresponse.write(\'</div>\\n          <div id="poweredBy" class="pull-right">\\n            \', escape=False)\nresponse.write(T(\'Developed by\'))\nresponse.write(\'\\n            <font style="font-style:italic;color:gray">Swagboomers</font>\\n          </div>\\n      </div>\\n    </footer>\\n    \', escape=False)\nresponse.write(\'\\n    <!-- The javascript =============================== -->\\n    <script src="\', escape=False)\nresponse.write(URL(\'static\',\'js/bootstrap.min.js\'))\nresponse.write(\'"></script>\\n    <script src="\', escape=False)\nresponse.write(URL(\'static\',\'js/web2py-bootstrap3.js\'))\nresponse.write(\'"></script>\\n    <script src="\', escape=False)\nresponse.write(URL(\'static\',\'js/menu_scroll.js\'))\nresponse.write(\'"></script>\\n    <script src="\', escape=False)\nresponse.write(URL(\'static\',\'js/innermenu.js\'))\nresponse.write(\'"></script>\\n    \', escape=False)\nresponse.write(\'\\n    \', escape=False)\nif response.google_analytics_id:\n    response.write(\'\\n    <!-- Analytics ==================================== -->\\n    <script src="\', escape=False)\n    response.write(URL(\'static\',\'js/analytics.min.js\'))\n    response.write(\'"></script>\\n    <script type="text/javascript">\\n      analytics.initialize({\\n      \\\'Google Analytics\\\':{trackingId:\\\'\', escape=False)\n    response.write(response.google_analytics_id)\n    response.write("\'}\\n      });\\n    </script>\\n    ", escape=False)\n    pass\nresponse.write(\'\\n    <!-- Share ============================y============ -->\\n    <!-- <script src="\', escape=False)\nresponse.write(URL(\'static\',\'js/share.js\',vars=dict(static=URL(\'static\',\'images\'))))\nresponse.write(\'"></script> -->\\n  </body>\\n</html>\\n\', escape=False)'
p7
sS'snapshot'
p8
(dp9
S'exception'
p10
(dp11
S'__hash__'
p12
S"<method-wrapper '__hash__' of exceptions.AttributeError object>"
p13
sS'__setattr__'
p14
S"<method-wrapper '__setattr__' of exceptions.AttributeError object>"
p15
sS'__reduce_ex__'
p16
S'<built-in method __reduce_ex__ of exceptions.AttributeError object>'
p17
sS'__getslice__'
p18
S"<method-wrapper '__getslice__' of exceptions.AttributeError object>"
p19
sS'__getitem__'
p20
S"<method-wrapper '__getitem__' of exceptions.AttributeError object>"
p21
sS'__setstate__'
p22
S'<built-in method __setstate__ of exceptions.AttributeError object>'
p23
sS'args'
p24
S'("\'NoneType\' object has no attribute \'first_name\'",)'
p25
sS'__reduce__'
p26
S'<built-in method __reduce__ of exceptions.AttributeError object>'
p27
sS'__str__'
p28
S"<method-wrapper '__str__' of exceptions.AttributeError object>"
p29
sS'__format__'
p30
S'<built-in method __format__ of exceptions.AttributeError object>'
p31
sS'__getattribute__'
p32
S"<method-wrapper '__getattribute__' of exceptions.AttributeError object>"
p33
sS'__class__'
p34
S"<type 'exceptions.AttributeError'>"
p35
sS'__unicode__'
p36
S'<built-in method __unicode__ of exceptions.AttributeError object>'
p37
sS'__delattr__'
p38
S"<method-wrapper '__delattr__' of exceptions.AttributeError object>"
p39
sS'__subclasshook__'
p40
S'<built-in method __subclasshook__ of type object>'
p41
sS'__repr__'
p42
S"<method-wrapper '__repr__' of exceptions.AttributeError object>"
p43
sS'__dict__'
p44
S'{}'
p45
sS'__sizeof__'
p46
S'<built-in method __sizeof__ of exceptions.AttributeError object>'
p47
sS'__doc__'
p48
S"'Attribute not found.'"
p49
sS'__init__'
p50
S"<method-wrapper '__init__' of exceptions.AttributeError object>"
p51
sS'__new__'
p52
S'<built-in method __new__ of type object>'
p53
ssS'evalue'
p54
S"'NoneType' object has no attribute 'first_name'"
p55
sS'request'
p56
cgluon.html
XML_unpickle
p57
(S's\x0f[\x00\x00<div><table><tr><td style="font-weight:bold;vertical-align:top;">ajax</td><td style="vertical-align:top;">:</td><td><div>False</div></td></tr><tr><td style="font-weight:bold;vertical-align:top;">application</td><td style="vertical-align:top;">:</td><td><div>oj</div></td></tr><tr><td style="font-weight:bold;vertical-align:top;">args</td><td style="vertical-align:top;">:</td><td><div><table></table></div></td></tr><tr><td style="font-weight:bold;vertical-align:top;">cid</td><td style="vertical-align:top;">:</td><td><div>None</div></td></tr><tr><td style="font-weight:bold;vertical-align:top;">client</td><td style="vertical-align:top;">:</td><td><div>127.0.0.1</div></td></tr><tr><td style="font-weight:bold;vertical-align:top;">controller</td><td style="vertical-align:top;">:</td><td><div>contest</div></td></tr><tr><td style="font-weight:bold;vertical-align:top;">cookies</td><td style="vertical-align:top;">:</td><td><div><table><tr><td style="font-weight:bold;vertical-align:top;">session_id_admin</td><td style="vertical-align:top;">:</td><td><div>127.0.0.1-3c391180-9100-434d-9379-ca9d2869cb5d<table><tr><td style="font-weight:bold;vertical-align:top;">comment</td><td style="vertical-align:top;">:</td><td><div></div></td></tr><tr><td style="font-weight:bold;vertical-align:top;">domain</td><td style="vertical-align:top;">:</td><td><div></div></td></tr><tr><td style="font-weight:bold;vertical-align:top;">expires</td><td style="vertical-align:top;">:</td><td><div></div></td></tr><tr><td style="font-weight:bold;vertical-align:top;">httponly</td><td style="vertical-align:top;">:</td><td><div></div></td></tr><tr><td style="font-weight:bold;vertical-align:top;">max-age</td><td style="vertical-align:top;">:</td><td><div></div></td></tr><tr><td style="font-weight:bold;vertical-align:top;">path</td><td style="vertical-align:top;">:</td><td><div></div></td></tr><tr><td style="font-weight:bold;vertical-align:top;">secure</td><td style="vertical-align:top;">:</td><td><div></div></td></tr><tr><td style="font-weight:bold;vertical-align:top;">version</td><td style="vertical-align:top;">:</td><td><div></div></td></tr></table></div></td></tr><tr><td style="font-weight:bold;vertical-align:top;">session_id_oj</td><td style="vertical-align:top;">:</td><td><div>127.0.0.1-7e728038-823c-4c2f-8159-b7ba4c6a1c91<table><tr><td style="font-weight:bold;vertical-align:top;">comment</td><td style="vertical-align:top;">:</td><td><div></div></td></tr><tr><td style="font-weight:bold;vertical-align:top;">domain</td><td style="vertical-align:top;">:</td><td><div></div></td></tr><tr><td style="font-weight:bold;vertical-align:top;">expires</td><td style="vertical-align:top;">:</td><td><div></div></td></tr><tr><td style="font-weight:bold;vertical-align:top;">httponly</td><td style="vertical-align:top;">:</td><td><div></div></td></tr><tr><td style="font-weight:bold;vertical-align:top;">max-age</td><td style="vertical-align:top;">:</td><td><div></div></td></tr><tr><td style="font-weight:bold;vertical-align:top;">path</td><td style="vertical-align:top;">:</td><td><div></div></td></tr><tr><td style="font-weight:bold;vertical-align:top;">secure</td><td style="vertical-align:top;">:</td><td><div></div></td></tr><tr><td style="font-weight:bold;vertical-align:top;">version</td><td style="vertical-align:top;">:</td><td><div></div></td></tr></table></div></td></tr><tr><td style="font-weight:bold;vertical-align:top;">session_id_welcome</td><td style="vertical-align:top;">:</td><td><div>127.0.0.1-44f7de60-5858-4350-a4cd-8271043ad4b9<table><tr><td style="font-weight:bold;vertical-align:top;">comment</td><td style="vertical-align:top;">:</td><td><div></div></td></tr><tr><td style="font-weight:bold;vertical-align:top;">domain</td><td style="vertical-align:top;">:</td><td><div></div></td></tr><tr><td style="font-weight:bold;vertical-align:top;">expires</td><td style="vertical-align:top;">:</td><td><div></div></td></tr><tr><td style="font-weight:bold;vertical-align:top;">httponly</td><td style="vertical-align:top;">:</td><td><div></div></td></tr><tr><td style="font-weight:bold;vertical-align:top;">max-age</td><td style="vertical-align:top;">:</td><td><div></div></td></tr><tr><td style="font-weight:bold;vertical-align:top;">path</td><td style="vertical-align:top;">:</td><td><div></div></td></tr><tr><td style="font-weight:bold;vertical-align:top;">secure</td><td style="vertical-align:top;">:</td><td><div></div></td></tr><tr><td style="font-weight:bold;vertical-align:top;">version</td><td style="vertical-align:top;">:</td><td><div></div></td></tr></table></div></td></tr></table></div></td></tr><tr><td style="font-weight:bold;vertical-align:top;">env</td><td style="vertical-align:top;">:</td><td><div><table><tr><td style="font-weight:bold;vertical-align:top;">HTTP_ACCEPT</td><td style="vertical-align:top;">:</td><td><div>text/html,application/xhtml+xml,application/xml;q=0.9,*/*;q=0.8</div></td></tr><tr><td style="font-weight:bold;vertical-align:top;">HTTP_ACCEPT_ENCODING</td><td style="vertical-align:top;">:</td><td><div>gzip, deflate</div></td></tr><tr><td style="font-weight:bold;vertical-align:top;">HTTP_ACCEPT_LANGUAGE</td><td style="vertical-align:top;">:</td><td><div>en-US,en;q=0.5</div></td></tr><tr><td style="font-weight:bold;vertical-align:top;">HTTP_CONNECTION</td><td style="vertical-align:top;">:</td><td><div>keep-alive</div></td></tr><tr><td style="font-weight:bold;vertical-align:top;">HTTP_COOKIE</td><td style="vertical-align:top;">:</td><td><div>session_id_welcome=127.0.0.1-44f7de60-5858-4350-a4cd-8271043ad4b9; session_id_oj=127.0.0.1-7e728038-823c-4c2f-8159-b7ba4c6a1c91; session_id_admin=127.0.0.1-3c391180-9100-434d-9379-ca9d2869cb5d</div></td></tr><tr><td style="font-weight:bold;vertical-align:top;">HTTP_HOST</td><td style="vertical-align:top;">:</td><td><div>localhost:8080</div></td></tr><tr><td style="font-weight:bold;vertical-align:top;">HTTP_REFERER</td><td style="vertical-align:top;">:</td><td><div>http://localhost:8080/oj/admin/show_problems/1</div></td></tr><tr><td style="font-weight:bold;vertical-align:top;">HTTP_USER_AGENT</td><td style="vertical-align:top;">:</td><td><div>Mozilla/5.0 (X11; Fedora; Linux x86_64; rv:43.0) Gecko/20100101 Firefox/43.0</div></td></tr><tr><td style="font-weight:bold;vertical-align:top;">PATH_INFO</td><td style="vertical-align:top;">:</td><td><div>/oj/contest/all</div></td></tr><tr><td style="font-weight:bold;vertical-align:top;">QUERY_STRING</td><td style="vertical-align:top;">:</td><td><div></div></td></tr><tr><td style="font-weight:bold;vertical-align:top;">REMOTE_ADDR</td><td style="vertical-align:top;">:</td><td><div>127.0.0.1</div></td></tr><tr><td style="font-weight:bold;vertical-align:top;">REMOTE_PORT</td><td style="vertical-align:top;">:</td><td><div>57254</div></td></tr><tr><td style="font-weight:bold;vertical-align:top;">REQUEST_METHOD</td><td style="vertical-align:top;">:</td><td><div>GET</div></td></tr><tr><td style="font-weight:bold;vertical-align:top;">SCRIPT_NAME</td><td style="vertical-align:top;">:</td><td><div></div></td></tr><tr><td style="font-weight:bold;vertical-align:top;">SERVER_NAME</td><td style="vertical-align:top;">:</td><td><div>localhost.localdomain</div></td></tr><tr><td style="font-weight:bold;vertical-align:top;">SERVER_PORT</td><td style="vertical-align:top;">:</td><td><div>8080</div></td></tr><tr><td style="font-weight:bold;vertical-align:top;">SERVER_PROTOCOL</td><td style="vertical-align:top;">:</td><td><div>HTTP/1.1</div></td></tr><tr><td style="font-weight:bold;vertical-align:top;">SERVER_SOFTWARE</td><td style="vertical-align:top;">:</td><td><div>Rocket 1.2.6</div></td></tr><tr><td style="font-weight:bold;vertical-align:top;">app_folders</td><td style="vertical-align:top;">:</td><td><div>set([&#x27;/home/sourav/Documents/Project_OJ/Redefined/applications/oj/&#x27;, &#x27;/home/sourav/Documents/Project_OJ/Redefined/applications/admin/&#x27;, &#x27;/home/sourav/Documents/Project_OJ/Redefined/applications/welcome/&#x27;])</div></td></tr><tr><td style="font-weight:bold;vertical-align:top;">applications_parent</td><td style="vertical-align:top;">:</td><td><div>/home/sourav/Documents/Project_OJ/Redefined</div></td></tr><tr><td style="font-weight:bold;vertical-align:top;">cmd_args</td><td style="vertical-align:top;">:</td><td><div><table></table></div></td></tr><tr><td style="font-weight:bold;vertical-align:top;">cmd_options</td><td style="vertical-align:top;">:</td><td><div>&lt;Values at 0x7f1d01024e60: {&#x27;verbose&#x27;: False, &#x27;ip&#x27;: &#x27;127.0.0.1&#x27;, &#x27;debuglevel&#x27;: 30, &#x27;with_scheduler&#x27;: False, &#x27;ips&#x27;: [&#x27;127.0.0.1&#x27;], &#x27;shutdown_timeout&#x27;: 5, &#x27;taskbar&#x27;: False, &#x27;with_coverage&#x27;: False, &#x27;scheduler_groups&#x27;: None, &#x27;port&#x27;: 8080, &#x27;maxthreads&#x27;: None, &#x27;softcron&#x27;: False, &#x27;server_name&#x27;: &#x27;localhost.localdomain&#x27;, &#x27;bpython&#x27;: False, &#x27;nogui&#x27;: True, &#x27;pid_filename&#x27;: &#x27;httpserver.pid&#x27;, &#x27;print_errors&#x27;: False, &#x27;extcron&#x27;: False, &#x27;runcron&#x27;: False, &#x27;run_system_tests&#x27;: False, &#x27;test&#x27;: None, &#x27;folder&#x27;: &#x27;/home/sourav/Documents/Project_OJ/Redefined&#x27;, &#x27;config&#x27;: &#x27;&#x27;, &#x27;minthreads&#x27;: None, &#x27;shell&#x27;: None, &#x27;run&#x27;: &#x27;&#x27;, &#x27;log_filename&#x27;: &#x27;httpserver.log&#x27;, &#x27;profiler_dir&#x27;: None, &#x27;args&#x27;: [&#x27;&#x27;], &#x27;socket_timeout&#x27;: 5, &#x27;ssl_ca_certificate&#x27;: None, &#x27;scheduler&#x27;: None, &#x27;interfaces&#x27;: None, &#x27;ssl_private_key&#x27;: &#x27;&#x27;, &#x27;gae&#x27;: None, &#x27;password&#x27;: &#x27;a&#x27;, &#x27;request_queue_size&#x27;: 5, &#x27;ssl_certificate&#x27;: &#x27;&#x27;, &#x27;cronjob&#x27;: False, &#x27;numthreads&#x27;: None, &#x27;quiet&#x27;: False, &#x27;import_models&#x27;: False, &#x27;timeout&#x27;: 10, &#x27;plain&#x27;: False, &#x27;nobanner&#x27;: False}&gt;</div></td></tr><tr><td style="font-weight:bold;vertical-align:top;">db_sessions</td><td style="vertical-align:top;">:</td><td><div>set([])</div></td></tr><tr><td style="font-weight:bold;vertical-align:top;">debugging</td><td style="vertical-align:top;">:</td><td><div>False</div></td></tr><tr><td style="font-weight:bold;vertical-align:top;">gluon_parent</td><td style="vertical-align:top;">:</td><td><div>/home/sourav/Documents/Project_OJ/Redefined</div></td></tr><tr><td style="font-weight:bold;vertical-align:top;">http_accept</td><td style="vertical-align:top;">:</td><td><div>text/html,application/xhtml+xml,application/xml;q=0.9,*/*;q=0.8</div></td></tr><tr><td style="font-weight:bold;vertical-align:top;">http_accept_encoding</td><td style="vertical-align:top;">:</td><td><div>gzip, deflate</div></td></tr><tr><td style="font-weight:bold;vertical-align:top;">http_accept_language</td><td style="vertical-align:top;">:</td><td><div>en-US,en;q=0.5</div></td></tr><tr><td style="font-weight:bold;vertical-align:top;">http_connection</td><td style="vertical-align:top;">:</td><td><div>keep-alive</div></td></tr><tr><td style="font-weight:bold;vertical-align:top;">http_cookie</td><td style="vertical-align:top;">:</td><td><div>session_id_welcome=127.0.0.1-44f7de60-5858-4350-a4cd-8271043ad4b9; session_id_oj=127.0.0.1-7e728038-823c-4c2f-8159-b7ba4c6a1c91; session_id_admin=127.0.0.1-3c391180-9100-434d-9379-ca9d2869cb5d</div></td></tr><tr><td style="font-weight:bold;vertical-align:top;">http_host</td><td style="vertical-align:top;">:</td><td><div>localhost:8080</div></td></tr><tr><td style="font-weight:bold;vertical-align:top;">http_referer</td><td style="vertical-align:top;">:</td><td><div>http://localhost:8080/oj/admin/show_problems/1</div></td></tr><tr><td style="font-weight:bold;vertical-align:top;">http_user_agent</td><td style="vertical-align:top;">:</td><td><div>Mozilla/5.0 (X11; Fedora; Linux x86_64; rv:43.0) Gecko/20100101 Firefox/43.0</div></td></tr><tr><td style="font-weight:bold;vertical-align:top;">is_jython</td><td style="vertical-align:top;">:</td><td><div>False</div></td></tr><tr><td style="font-weight:bold;vertical-align:top;">is_pypy</td><td style="vertical-align:top;">:</td><td><div>False</div></td></tr><tr><td style="font-weight:bold;vertical-align:top;">is_source</td><td style="vertical-align:top;">:</td><td><div>True</div></td></tr><tr><td style="font-weight:bold;vertical-align:top;">local_hosts</td><td style="vertical-align:top;">:</td><td><div><table><tr><td><div>::1</div></td></tr><tr><td><div>::ffff:127.0.0.1</div></td></tr><tr><td><div>127.0.0.1</div></td></tr><tr><td><div>localhost.localdomain</div></td></tr></table></div></td></tr><tr><td style="font-weight:bold;vertical-align:top;">path_info</td><td style="vertical-align:top;">:</td><td><div>/oj/contest/all</div></td></tr><tr><td style="font-weight:bold;vertical-align:top;">query_string</td><td style="vertical-align:top;">:</td><td><div></div></td></tr><tr><td style="font-weight:bold;vertical-align:top;">remote_addr</td><td style="vertical-align:top;">:</td><td><div>127.0.0.1</div></td></tr><tr><td style="font-weight:bold;vertical-align:top;">remote_port</td><td style="vertical-align:top;">:</td><td><div>57254</div></td></tr><tr><td style="font-weight:bold;vertical-align:top;">request_method</td><td style="vertical-align:top;">:</td><td><div>GET</div></td></tr><tr><td style="font-weight:bold;vertical-align:top;">request_uri</td><td style="vertical-align:top;">:</td><td><div>/oj/contest/all</div></td></tr><tr><td style="font-weight:bold;vertical-align:top;">script_name</td><td style="vertical-align:top;">:</td><td><div></div></td></tr><tr><td style="font-weight:bold;vertical-align:top;">server_name</td><td style="vertical-align:top;">:</td><td><div>localhost.localdomain</div></td></tr><tr><td style="font-weight:bold;vertical-align:top;">server_port</td><td style="vertical-align:top;">:</td><td><div>8080</div></td></tr><tr><td style="font-weight:bold;vertical-align:top;">server_protocol</td><td style="vertical-align:top;">:</td><td><div>HTTP/1.1</div></td></tr><tr><td style="font-weight:bold;vertical-align:top;">server_software</td><td style="vertical-align:top;">:</td><td><div>Rocket 1.2.6</div></td></tr><tr><td style="font-weight:bold;vertical-align:top;">web2py_path</td><td style="vertical-align:top;">:</td><td><div>/home/sourav/Documents/Project_OJ/Redefined</div></td></tr><tr><td style="font-weight:bold;vertical-align:top;">web2py_version</td><td style="vertical-align:top;">:</td><td><div>2.13.4-stable+timestamp.2015.12.26.04.59.39</div></td></tr><tr><td style="font-weight:bold;vertical-align:top;">wsgi.errors</td><td style="vertical-align:top;">:</td><td><div>&lt;open file &#x27;&lt;stderr&gt;&#x27;, mode &#x27;w&#x27; at 0x7f1d100081e0&gt;</div></td></tr><tr><td style="font-weight:bold;vertical-align:top;">wsgi.file_wrapper</td><td style="vertical-align:top;">:</td><td><div>&lt;class wsgiref.util.FileWrapper at 0x7f1d0104e530&gt;</div></td></tr><tr><td style="font-weight:bold;vertical-align:top;">wsgi.input</td><td style="vertical-align:top;">:</td><td><div>&lt;socket._fileobject object at 0x7f1d00080950&gt;</div></td></tr><tr><td style="font-weight:bold;vertical-align:top;">wsgi.multiprocess</td><td style="vertical-align:top;">:</td><td><div>False</div></td></tr><tr><td style="font-weight:bold;vertical-align:top;">wsgi.multithread</td><td style="vertical-align:top;">:</td><td><div>True</div></td></tr><tr><td style="font-weight:bold;vertical-align:top;">wsgi.run_once</td><td style="vertical-align:top;">:</td><td><div>False</div></td></tr><tr><td style="font-weight:bold;vertical-align:top;">wsgi.url_scheme</td><td style="vertical-align:top;">:</td><td><div>http</div></td></tr><tr><td style="font-weight:bold;vertical-align:top;">wsgi.version</td><td style="vertical-align:top;">:</td><td><div><table><tr><td><div>1</div></td></tr><tr><td><div>0</div></td></tr></table></div></td></tr><tr><td style="font-weight:bold;vertical-align:top;">wsgi_errors</td><td style="vertical-align:top;">:</td><td><div>&lt;open file &#x27;&lt;stderr&gt;&#x27;, mode &#x27;w&#x27; at 0x7f1d100081e0&gt;</div></td></tr><tr><td style="font-weight:bold;vertical-align:top;">wsgi_file_wrapper</td><td style="vertical-align:top;">:</td><td><div>&lt;class wsgiref.util.FileWrapper at 0x7f1d0104e530&gt;</div></td></tr><tr><td style="font-weight:bold;vertical-align:top;">wsgi_input</td><td style="vertical-align:top;">:</td><td><div>&lt;socket._fileobject object at 0x7f1d00080950&gt;</div></td></tr><tr><td style="font-weight:bold;vertical-align:top;">wsgi_multiprocess</td><td style="vertical-align:top;">:</td><td><div>False</div></td></tr><tr><td style="font-weight:bold;vertical-align:top;">wsgi_multithread</td><td style="vertical-align:top;">:</td><td><div>True</div></td></tr><tr><td style="font-weight:bold;vertical-align:top;">wsgi_run_once</td><td style="vertical-align:top;">:</td><td><div>False</div></td></tr><tr><td style="font-weight:bold;vertical-align:top;">wsgi_url_scheme</td><td style="vertical-align:top;">:</td><td><div>http</div></td></tr><tr><td style="font-weight:bold;vertical-align:top;">wsgi_version</td><td style="vertical-align:top;">:</td><td><div><table><tr><td><div>1</div></td></tr><tr><td><div>0</div></td></tr></table></div></td></tr></table></div></td></tr><tr><td style="font-weight:bold;vertical-align:top;">extension</td><td style="vertical-align:top;">:</td><td><div>html</div></td></tr><tr><td style="font-weight:bold;vertical-align:top;">folder</td><td style="vertical-align:top;">:</td><td><div>/home/sourav/Documents/Project_OJ/Redefined/applications/oj/</div></td></tr><tr><td style="font-weight:bold;vertical-align:top;">function</td><td style="vertical-align:top;">:</td><td><div>all</div></td></tr><tr><td style="font-weight:bold;vertical-align:top;">global_settings</td><td style="vertical-align:top;">:</td><td><div><table><tr><td style="font-weight:bold;vertical-align:top;">app_folders</td><td style="vertical-align:top;">:</td><td><div>set([&#x27;/home/sourav/Documents/Project_OJ/Redefined/applications/oj/&#x27;, &#x27;/home/sourav/Documents/Project_OJ/Redefined/applications/admin/&#x27;, &#x27;/home/sourav/Documents/Project_OJ/Redefined/applications/welcome/&#x27;])</div></td></tr><tr><td style="font-weight:bold;vertical-align:top;">applications_parent</td><td style="vertical-align:top;">:</td><td><div>/home/sourav/Documents/Project_OJ/Redefined</div></td></tr><tr><td style="font-weight:bold;vertical-align:top;">cmd_args</td><td style="vertical-align:top;">:</td><td><div><table></table></div></td></tr><tr><td style="font-weight:bold;vertical-align:top;">cmd_options</td><td style="vertical-align:top;">:</td><td><div>&lt;Values at 0x7f1d01024e60: {&#x27;verbose&#x27;: False, &#x27;ip&#x27;: &#x27;127.0.0.1&#x27;, &#x27;debuglevel&#x27;: 30, &#x27;with_scheduler&#x27;: False, &#x27;ips&#x27;: [&#x27;127.0.0.1&#x27;], &#x27;shutdown_timeout&#x27;: 5, &#x27;taskbar&#x27;: False, &#x27;with_coverage&#x27;: False, &#x27;scheduler_groups&#x27;: None, &#x27;port&#x27;: 8080, &#x27;maxthreads&#x27;: None, &#x27;softcron&#x27;: False, &#x27;server_name&#x27;: &#x27;localhost.localdomain&#x27;, &#x27;bpython&#x27;: False, &#x27;nogui&#x27;: True, &#x27;pid_filename&#x27;: &#x27;httpserver.pid&#x27;, &#x27;print_errors&#x27;: False, &#x27;extcron&#x27;: False, &#x27;runcron&#x27;: False, &#x27;run_system_tests&#x27;: False, &#x27;test&#x27;: None, &#x27;folder&#x27;: &#x27;/home/sourav/Documents/Project_OJ/Redefined&#x27;, &#x27;config&#x27;: &#x27;&#x27;, &#x27;minthreads&#x27;: None, &#x27;shell&#x27;: None, &#x27;run&#x27;: &#x27;&#x27;, &#x27;log_filename&#x27;: &#x27;httpserver.log&#x27;, &#x27;profiler_dir&#x27;: None, &#x27;args&#x27;: [&#x27;&#x27;], &#x27;socket_timeout&#x27;: 5, &#x27;ssl_ca_certificate&#x27;: None, &#x27;scheduler&#x27;: None, &#x27;interfaces&#x27;: None, &#x27;ssl_private_key&#x27;: &#x27;&#x27;, &#x27;gae&#x27;: None, &#x27;password&#x27;: &#x27;a&#x27;, &#x27;request_queue_size&#x27;: 5, &#x27;ssl_certificate&#x27;: &#x27;&#x27;, &#x27;cronjob&#x27;: False, &#x27;numthreads&#x27;: None, &#x27;quiet&#x27;: False, &#x27;import_models&#x27;: False, &#x27;timeout&#x27;: 10, &#x27;plain&#x27;: False, &#x27;nobanner&#x27;: False}&gt;</div></td></tr><tr><td style="font-weight:bold;vertical-align:top;">db_sessions</td><td style="vertical-align:top;">:</td><td><div>set([])</div></td></tr><tr><td style="font-weight:bold;vertical-align:top;">debugging</td><td style="vertical-align:top;">:</td><td><div>False</div></td></tr><tr><td style="font-weight:bold;vertical-align:top;">gluon_parent</td><td style="vertical-align:top;">:</td><td><div>/home/sourav/Documents/Project_OJ/Redefined</div></td></tr><tr><td style="font-weight:bold;vertical-align:top;">is_jython</td><td style="vertical-align:top;">:</td><td><div>False</div></td></tr><tr><td style="font-weight:bold;vertical-align:top;">is_pypy</td><td style="vertical-align:top;">:</td><td><div>False</div></td></tr><tr><td style="font-weight:bold;vertical-align:top;">is_source</td><td style="vertical-align:top;">:</td><td><div>True</div></td></tr><tr><td style="font-weight:bold;vertical-align:top;">local_hosts</td><td style="vertical-align:top;">:</td><td><div><table><tr><td><div>::1</div></td></tr><tr><td><div>::ffff:127.0.0.1</div></td></tr><tr><td><div>127.0.0.1</div></td></tr><tr><td><div>localhost.localdomain</div></td></tr></table></div></td></tr><tr><td style="font-weight:bold;vertical-align:top;">web2py_version</td><td style="vertical-align:top;">:</td><td><div>2.13.4-stable+timestamp.2015.12.26.04.59.39</div></td></tr></table></div></td></tr><tr><td style="font-weight:bold;vertical-align:top;">is_https</td><td style="vertical-align:top;">:</td><td><div>False</div></td></tr><tr><td style="font-weight:bold;vertical-align:top;">is_local</td><td style="vertical-align:top;">:</td><td><div>True</div></td></tr><tr><td style="font-weight:bold;vertical-align:top;">is_restful</td><td style="vertical-align:top;">:</td><td><div>False</div></td></tr><tr><td style="font-weight:bold;vertical-align:top;">is_scheduler</td><td style="vertical-align:top;">:</td><td><div>False</div></td></tr><tr><td style="font-weight:bold;vertical-align:top;">is_shell</td><td style="vertical-align:top;">:</td><td><div>False</div></td></tr><tr><td style="font-weight:bold;vertical-align:top;">now</td><td style="vertical-align:top;">:</td><td><div>datetime.datetime(2016, 5, 3, 4, 43, 29, 363136)</div></td></tr><tr><td style="font-weight:bold;vertical-align:top;">raw_args</td><td style="vertical-align:top;">:</td><td><div></div></td></tr><tr><td style="font-weight:bold;vertical-align:top;">raw_extension</td><td style="vertical-align:top;">:</td><td><div>None</div></td></tr><tr><td style="font-weight:bold;vertical-align:top;">url</td><td style="vertical-align:top;">:</td><td><div>/oj/contest/all</div></td></tr><tr><td style="font-weight:bold;vertical-align:top;">utcnow</td><td style="vertical-align:top;">:</td><td><div>datetime.datetime(2016, 5, 2, 23, 13, 29, 363159)</div></td></tr><tr><td style="font-weight:bold;vertical-align:top;">wsgi</td><td style="vertical-align:top;">:</td><td><div>&lt;gluon.main.LazyWSGI object at 0x7f1cd85c6c50&gt;</div></td></tr></table></div>'
tRp58
sS'frames'
p59
(lp60
(dp61
S'file'
p62
S'/home/sourav/Documents/Project_OJ/Redefined/gluon/restricted.py'
p63
sS'dump'
p64
(dp65
S'environment'
p66
S"{'A': <class 'gluon.html.A'>, 'ANY_OF': <class 'gluon.validators.ANY_OF'>, 'ASSIGNJS': <function ASSIGNJS>, 'Auth': <class 'gluon.tools.Auth'>, 'B': <class 'gluon.html.B'>, 'BEAUTIFY': <class 'gluon.html.BEAUTIFY'>, 'BODY': <class 'gluon.html.BODY'>, 'BR': <class 'gluon.html.BR'>, 'BUTTON': <class 'gluon.html.BUTTON'>, 'CAT': <class 'gluon.html.CAT'>, ...}"
p67
sS'ccode'
p68
S'<code object <module> at 0x7f1cf821dbb0, file "/.../applications/oj/views/contest/all.html", line 1>'
p69
ssS'lnum'
p70
I227
sS'lines'
p71
(dp72
I224
S'            ccode = code'
p73
sI225
S'        else:'
p74
sI226
S'            ccode = compile2(code, layer)'
p75
sI227
S'        exec ccode in environment'
p76
sI228
S'    except HTTP:'
p77
sI229
S'        raise'
p78
sI230
S'    except RestrictedError:'
p79
sI231
S'        # do not encapsulate (obfuscate) the original RestrictedError'
p80
sI222
S'    try:'
p81
sI223
S'        if isinstance(code, types.CodeType):'
p82
ssS'call'
p83
S'(code=r"response.write(\'<!DOCTYPE html>\\n<!--[if (gt IE ...script> -->\\n  </body>\\n</html>\\n\', escape=False)", environment={\'A\': <class \'gluon.html.A\'>, \'ANY_OF\': <class \'gluon.validators.ANY_OF\'>, \'ASSIGNJS\': <function ASSIGNJS>, \'Auth\': <class \'gluon.tools.Auth\'>, \'B\': <class \'gluon.html.B\'>, \'BEAUTIFY\': <class \'gluon.html.BEAUTIFY\'>, \'BODY\': <class \'gluon.html.BODY\'>, \'BR\': <class \'gluon.html.BR\'>, \'BUTTON\': <class \'gluon.html.BUTTON\'>, \'CAT\': <class \'gluon.html.CAT\'>, ...}, layer=\'/home/sourav/Documents/Project_OJ/Redefined/applications/oj/views/contest/all.html\')'
p84
sS'func'
p85
S'restricted'
p86
sa(dp87
g62
S'/home/sourav/Documents/Project_OJ/Redefined/applications/oj/views/contest/all.html'
p88
sg64
(dp89
S'a'
S'undefined'
p90
sS'URL'
p91
S'<function URL>'
p92
sS'args'
p93
g90
sS'p'
S'<Row {\'Contest_Name\': \'TODAY\', \'author\': None, \'...\': "MY OCNfads\\r\\nf[laewk;jf aklf ewa\'f\\r\\neaw"}>'
p94
sS'href'
p95
g90
sS'p.Contest_Name'
p96
S"'TODAY'"
p97
sS'p.id'
p98
S'3L'
p99
sS'td'
p100
g90
ssg70
I85
sg71
(dp101
I76
S'    response.write(\'\\n  <h4 align="center">No Upcoming Contests</h4>\\n  \', escape=False)'
p102
sI77
S'else:'
p103
sI78
S'    response.write(\'\\n  <table class="table table-striped">\\n    <thead class="thead-inverse">\\n      <tr>\\n        <th>Contest Name</th>\\n        <th>Author</th>\\n        <th>Start Time</th>\\n        <th>\\n          End Time\\n        </th>\\n      </tr>\\n    </thead>\\n    <tbody>\\n    \', escape=False)'
p104
sI79
S'    for p in futurecontests:'
p105
sI80
S"        response.write('\\n      <tr>\\n        <td><a href=', escape=False)"
p106
sI81
S"        response.write(URL('contest','view',args=p.id))"
p107
sI82
S"        response.write('>', escape=False)"
p108
sI83
S'        response.write(p.Contest_Name)'
p109
sI84
S"        response.write('</a></td>\\n        <td>', escape=False)"
p110
sI85
S'        response.write(p.author.first_name)'
p111
sI86
S"        response.write('</td>\\n        <td>', escape=False)"
p112
sI87
S'        response.write(p.start_time)'
p113
sI88
S"        response.write('</td>\\n        <td>\\n        ', escape=False)"
p114
sI89
S'        response.write((p.start_time + datetime.timedelta(hours=p.duration)))'
p115
sI90
S"        response.write('\\n        </td>\\n      </tr>\\n      ', escape=False)"
p116
sI91
S'        pass'
p117
sI92
S"    response.write('\\n      ', escape=False)"
p118
sI93
S'    pass'
p119
sI94
S'response.write(\'\\n    </tbody>\\n    </table>\\n  </div>\\n  </div>\\n<br/>\\n  <div class="row">\\n    <div class="col-md-12">\\n\\n    <h3>Running Contests</h3>\\n    \', escape=False)'
p120
sI95
S'if len(presentcontests)==0 :'
p121
ssg83
S'()'
p122
sg85
S'<module>'
p123
sasS'pyver'
p124
S'Python 2.7.10: /usr/bin/python (prefix: /usr)'
p125
sS'session'
p126
g57
(S's\x97\n\x00\x00<div><table><tr><td style="font-weight:bold;vertical-align:top;">auth</td><td style="vertical-align:top;">:</td><td><div><table><tr><td style="font-weight:bold;vertical-align:top;">expiration</td><td style="vertical-align:top;">:</td><td><div>3600</div></td></tr><tr><td style="font-weight:bold;vertical-align:top;">hmac_key</td><td style="vertical-align:top;">:</td><td><div>19d9121f-203c-46e4-8555-af2c3e3e901f</div></td></tr><tr><td style="font-weight:bold;vertical-align:top;">last_visit</td><td style="vertical-align:top;">:</td><td><div>datetime.datetime(2016, 5, 3, 4, 40, 10, 265211)</div></td></tr><tr><td style="font-weight:bold;vertical-align:top;">remember_me</td><td style="vertical-align:top;">:</td><td><div>False</div></td></tr><tr><td style="font-weight:bold;vertical-align:top;">user</td><td style="vertical-align:top;">:</td><td><div><table><tr><td style="font-weight:bold;vertical-align:top;">email</td><td style="vertical-align:top;">:</td><td><div>souravgl0@gmail.com</div></td></tr><tr><td style="font-weight:bold;vertical-align:top;">first_name</td><td style="vertical-align:top;">:</td><td><div>Sourav</div></td></tr><tr><td style="font-weight:bold;vertical-align:top;">id</td><td style="vertical-align:top;">:</td><td><div>1L</div></td></tr><tr><td style="font-weight:bold;vertical-align:top;">last_name</td><td style="vertical-align:top;">:</td><td><div>Goyal</div></td></tr><tr><td style="font-weight:bold;vertical-align:top;">registration_id</td><td style="vertical-align:top;">:</td><td><div></div></td></tr><tr><td style="font-weight:bold;vertical-align:top;">registration_key</td><td style="vertical-align:top;">:</td><td><div></div></td></tr><tr><td style="font-weight:bold;vertical-align:top;">reset_password_key</td><td style="vertical-align:top;">:</td><td><div></div></td></tr><tr><td style="font-weight:bold;vertical-align:top;">username</td><td style="vertical-align:top;">:</td><td><div>souravgl0</div></td></tr></table></div></td></tr><tr><td style="font-weight:bold;vertical-align:top;">user_groups</td><td style="vertical-align:top;">:</td><td><div><table><tr><td style="font-weight:bold;vertical-align:top;">1</td><td style="vertical-align:top;">:</td><td><div>user_1</div></td></tr></table></div></td></tr></table></div></td></tr><tr><td style="font-weight:bold;vertical-align:top;">flash</td><td style="vertical-align:top;">:</td><td><div>None</div></td></tr><tr><td style="font-weight:bold;vertical-align:top;">last_orderby</td><td style="vertical-align:top;">:</td><td><div>None</div></td></tr><tr><td style="font-weight:bold;vertical-align:top;">last_query</td><td style="vertical-align:top;">:</td><td><div>db.post_question.id&gt;0</div></td></tr></table></div>'
tRp127
sS'etype'
p128
S"<type 'exceptions.AttributeError'>"
p129
sS'date'
p130
S'Tue May  3 04:43:29 2016'
p131
sS'response'
p132
g57
(S's\xb9#\x00\x00<div><table><tr><td style="font-weight:bold;vertical-align:top;">body</td><td style="vertical-align:top;">:</td><td><div>&lt;cStringIO.StringO object at 0x7f1d01044a78&gt;</div></td></tr><tr><td style="font-weight:bold;vertical-align:top;">cookies</td><td style="vertical-align:top;">:</td><td><div><table><tr><td style="font-weight:bold;vertical-align:top;">session_id_oj</td><td style="vertical-align:top;">:</td><td><div>127.0.0.1-7e728038-823c-4c2f-8159-b7ba4c6a1c91<table><tr><td style="font-weight:bold;vertical-align:top;">comment</td><td style="vertical-align:top;">:</td><td><div></div></td></tr><tr><td style="font-weight:bold;vertical-align:top;">domain</td><td style="vertical-align:top;">:</td><td><div></div></td></tr><tr><td style="font-weight:bold;vertical-align:top;">expires</td><td style="vertical-align:top;">:</td><td><div></div></td></tr><tr><td style="font-weight:bold;vertical-align:top;">httponly</td><td style="vertical-align:top;">:</td><td><div></div></td></tr><tr><td style="font-weight:bold;vertical-align:top;">max-age</td><td style="vertical-align:top;">:</td><td><div></div></td></tr><tr><td style="font-weight:bold;vertical-align:top;">path</td><td style="vertical-align:top;">:</td><td><div>/</div></td></tr><tr><td style="font-weight:bold;vertical-align:top;">secure</td><td style="vertical-align:top;">:</td><td><div></div></td></tr><tr><td style="font-weight:bold;vertical-align:top;">version</td><td style="vertical-align:top;">:</td><td><div></div></td></tr></table></div></td></tr></table></div></td></tr><tr><td style="font-weight:bold;vertical-align:top;">delimiters</td><td style="vertical-align:top;">:</td><td><div><table><tr><td><div>{{</div></td></tr><tr><td><div>}}</div></td></tr></table></div></td></tr><tr><td style="font-weight:bold;vertical-align:top;">files</td><td style="vertical-align:top;">:</td><td><div><table><tr><td><div>/oj/static/js/jquery.js</div></td></tr><tr><td><div>/oj/static/css/calendar.css</div></td></tr><tr><td><div>/oj/static/js/calendar.js</div></td></tr><tr><td><div>/oj/static/js/web2py.js</div></td></tr></table></div></td></tr><tr><td style="font-weight:bold;vertical-align:top;">flash</td><td style="vertical-align:top;">:</td><td><div></div></td></tr><tr><td style="font-weight:bold;vertical-align:top;">form_label_separator</td><td style="vertical-align:top;">:</td><td><div>: </div></td></tr><tr><td style="font-weight:bold;vertical-align:top;">formstyle</td><td style="vertical-align:top;">:</td><td><div>table3cols</div></td></tr><tr><td style="font-weight:bold;vertical-align:top;">generic_patterns</td><td style="vertical-align:top;">:</td><td><div><table><tr><td><div>*</div></td></tr></table></div></td></tr><tr><td style="font-weight:bold;vertical-align:top;">headers</td><td style="vertical-align:top;">:</td><td><div><table><tr><td style="font-weight:bold;vertical-align:top;">X-Powered-By</td><td style="vertical-align:top;">:</td><td><div>web2py</div></td></tr></table></div></td></tr><tr><td style="font-weight:bold;vertical-align:top;">logo</td><td style="vertical-align:top;">:</td><td><div><a class="navbar-brand" href="/oj/default/index" id="web2py-logo"><b>OJ</b></a></div></td></tr><tr><td style="font-weight:bold;vertical-align:top;">menu</td><td style="vertical-align:top;">:</td><td><div><table><tr><td><div><table><tr><td><div>Home</div></td></tr><tr><td><div>False</div></td></tr><tr><td><div>/oj/default/index</div></td></tr><tr><td><div><table></table></div></td></tr></table></div></td></tr><tr><td><div><table><tr><td><div>Practice</div></td></tr><tr><td><div>False</div></td></tr><tr><td><div>/oj/problemset/problemset</div></td></tr><tr><td><div><table><tr><td><div><table><tr><td><div>Easy</div></td></tr><tr><td><div>False</div></td></tr><tr><td><div>/oj/problemset/problemset?difficulty=easy</div></td></tr></table></div></td></tr><tr><td><div><table><tr><td><div>Medium</div></td></tr><tr><td><div>False</div></td></tr><tr><td><div>/oj/problemset/problemset?difficulty=medium</div></td></tr></table></div></td></tr><tr><td><div><table><tr><td><div>Hard</div></td></tr><tr><td><div>False</div></td></tr><tr><td><div>/oj/problemset/problemset?difficulty=hard</div></td></tr></table></div></td></tr></table></div></td></tr></table></div></td></tr><tr><td><div><table><tr><td><div>Compete</div></td></tr><tr><td><div>False</div></td></tr><tr><td><div>/oj/contest/all</div></td></tr></table></div></td></tr><tr><td><div><table><tr><td><div>Discuss</div></td></tr><tr><td><div>False</div></td></tr><tr><td><div>/oj/discuss/discuss_main</div></td></tr></table></div></td></tr><tr><td><div><table><tr><td><div>Admin</div></td></tr><tr><td><div>False</div></td></tr><tr><td><div>/oj/contest/all</div></td></tr><tr><td><div><table><tr><td><div><table><tr><td><div>My Contests</div></td></tr><tr><td><div>False</div></td></tr><tr><td><div>/oj/admin/user_contests</div></td></tr></table></div></td></tr><tr><td><div><table><tr><td><div>New Contest</div></td></tr><tr><td><div>False</div></td></tr><tr><td><div>/oj/admin/new_contest</div></td></tr></table></div></td></tr></table></div></td></tr></table></div></td></tr></table></div></td></tr><tr><td style="font-weight:bold;vertical-align:top;">meta</td><td style="vertical-align:top;">:</td><td><div><table><tr><td style="font-weight:bold;vertical-align:top;">author</td><td style="vertical-align:top;">:</td><td><div>Sourav Goyal</div></td></tr><tr><td style="font-weight:bold;vertical-align:top;">description</td><td style="vertical-align:top;">:</td><td><div>Online Judge for Competitive Programming</div></td></tr><tr><td style="font-weight:bold;vertical-align:top;">keywords</td><td style="vertical-align:top;">:</td><td><div>C,C++,Java,Competitive,Programming,OJ</div></td></tr></table></div></td></tr><tr><td style="font-weight:bold;vertical-align:top;">models_to_run</td><td style="vertical-align:top;">:</td><td><div><table><tr><td><div>^\\w+\\.py$</div></td></tr><tr><td><div>^contest/\\w+\\.py$</div></td></tr><tr><td><div>^contest/all/\\w+\\.py$</div></td></tr></table></div></td></tr><tr><td style="font-weight:bold;vertical-align:top;">postprocessing</td><td style="vertical-align:top;">:</td><td><div><table></table></div></td></tr><tr><td style="font-weight:bold;vertical-align:top;">session_client</td><td style="vertical-align:top;">:</td><td><div>127.0.0.1</div></td></tr><tr><td style="font-weight:bold;vertical-align:top;">session_cookie_compression_level</td><td style="vertical-align:top;">:</td><td><div>None</div></td></tr><tr><td style="font-weight:bold;vertical-align:top;">session_cookie_expires</td><td style="vertical-align:top;">:</td><td><div>None</div></td></tr><tr><td style="font-weight:bold;vertical-align:top;">session_cookie_key</td><td style="vertical-align:top;">:</td><td><div>None</div></td></tr><tr><td style="font-weight:bold;vertical-align:top;">session_data_name</td><td style="vertical-align:top;">:</td><td><div>session_data_oj</div></td></tr><tr><td style="font-weight:bold;vertical-align:top;">session_file</td><td style="vertical-align:top;">:</td><td><div>&lt;open file &#x27;/home/sourav/Documents/Project_OJ/Redefined/applications/oj/sessions/173/199/127.0.0.1-7e728038-823c-4c2f-8159-b7ba4c6a1c91&#x27;, mode &#x27;rb+&#x27; at 0x7f1d004295d0&gt;</div></td></tr><tr><td style="font-weight:bold;vertical-align:top;">session_filename</td><td style="vertical-align:top;">:</td><td><div>/home/sourav/Documents/Project_OJ/Redefined/applications/oj/sessions/127.0.0.1-7e728038-823c-4c2f-8159-b7ba4c6a1c91</div></td></tr><tr><td style="font-weight:bold;vertical-align:top;">session_hash</td><td style="vertical-align:top;">:</td><td><div>000e9e43296f001f14efef874a4d7363</div></td></tr><tr><td style="font-weight:bold;vertical-align:top;">session_id</td><td style="vertical-align:top;">:</td><td><div>127.0.0.1-7e728038-823c-4c2f-8159-b7ba4c6a1c91</div></td></tr><tr><td style="font-weight:bold;vertical-align:top;">session_id_name</td><td style="vertical-align:top;">:</td><td><div>session_id_oj</div></td></tr><tr><td style="font-weight:bold;vertical-align:top;">session_locked</td><td style="vertical-align:top;">:</td><td><div>True</div></td></tr><tr><td style="font-weight:bold;vertical-align:top;">session_masterapp</td><td style="vertical-align:top;">:</td><td><div>oj</div></td></tr><tr><td style="font-weight:bold;vertical-align:top;">session_new</td><td style="vertical-align:top;">:</td><td><div>False</div></td></tr><tr><td style="font-weight:bold;vertical-align:top;">session_storage_type</td><td style="vertical-align:top;">:</td><td><div>file</div></td></tr><tr><td style="font-weight:bold;vertical-align:top;">status</td><td style="vertical-align:top;">:</td><td><div>200</div></td></tr><tr><td style="font-weight:bold;vertical-align:top;">subtitle</td><td style="vertical-align:top;">:</td><td><div>Learn Competitive programming</div></td></tr><tr><td style="font-weight:bold;vertical-align:top;">title</td><td style="vertical-align:top;">:</td><td><div>OJ</div></td></tr><tr><td style="font-weight:bold;vertical-align:top;">view</td><td style="vertical-align:top;">:</td><td><div>contest/all.html</div></td></tr></table></div>'
tRp133
sS'locals'
p134
(dp135
S'Service'
p136
S"<class 'gluon.tools.Service'>"
p137
sS'OBJECT'
p138
S"<class 'gluon.html.OBJECT'>"
p139
sS'datetime'
p140
S"<module 'datetime' from '/usr/lib64/python2.7/lib-dynload/datetime.so'>"
p141
sg126
S"<Storage {'_formkey[scheduler_run/3]': ['f388ecd...gin]': ['343826ca-5df3-4c69-bd3d-9dae72e29521']}>"
p142
sS'LINK'
p143
S"<class 'gluon.html.LINK'>"
p144
sS'BR'
p145
S"<class 'gluon.html.BR'>"
p146
sS'local_import'
p147
S'<function <lambda>>'
p148
sS'OPTGROUP'
p149
S"<class 'gluon.html.OPTGROUP'>"
p150
sS'__package__'
p151
S'None'
p152
sS'PRE'
p153
S"<class 'gluon.html.PRE'>"
p154
sS'IS_INT_IN_RANGE'
p155
S"<class 'gluon.validators.IS_INT_IN_RANGE'>"
p156
sS'left_sidebar_enabled'
p157
S'False'
p158
sS'IS_LOWER'
p159
S"<class 'gluon.validators.IS_LOWER'>"
p160
sS'IS_STRONG'
p161
S"<class 'gluon.validators.IS_STRONG'>"
p162
sS'Recaptcha'
p163
S"<class 'gluon.tools.Recaptcha'>"
p164
sS'cache'
p165
S'<gluon.cache.Cache object>'
p166
sS'IS_IN_DB'
p167
S"<class 'gluon.validators.IS_IN_DB'>"
p168
sS'futurecontests'
p169
S'[<Row {\'Contest_Name\': \'SEFE\', \'author\': 1L, \'sta..., \'Details\': \'FUTURE CONTEST.\\r\\nDARE TO JOIN?\'}>, <Row {\'Contest_Name\': \'TODAY\', \'author\': None, \'...\': "MY OCNfads\\r\\nf[laewk;jf aklf ewa\'f\\r\\neaw"}>]'
p170
sS'TAG'
p171
S'<gluon.html.__TAG__ object>'
p172
sS'Scheduler'
p173
S"<class 'gluon.scheduler.Scheduler'>"
p174
sS'SQLField'
p175
S"<class 'pydal.objects.Field'>"
p176
sS'BODY'
p177
S"<class 'gluon.html.BODY'>"
p178
sS'IS_DATE_IN_RANGE'
p179
S"<class 'gluon.validators.IS_DATE_IN_RANGE'>"
p180
sS'IFRAME'
p181
S"<class 'gluon.html.IFRAME'>"
p182
sS'URL'
p183
S'<function URL>'
p184
sS'__file__'
p185
S"'/home/sourav/Documents/Project_OJ/Redefined/applications/oj/views/contest/all.html'"
p186
sS'db'
p187
S'<DAL uri="sqlite://storage.sqlite">'
p188
sS'auth'
p189
S'<gluon.tools.Auth object>'
p190
sS'P'
S"<class 'gluon.html.P'>"
p191
sS'TFOOT'
p192
S"<class 'gluon.html.TFOOT'>"
p193
sS'scheduler'
p194
S'<Scheduler(Thread-398, initial daemon)>'
p195
sS'XHTML'
p196
S"<class 'gluon.html.XHTML'>"
p197
sS'db2'
p198
S'<DAL uri="sqlite://scheduler.sqlite">'
p199
sS'ON'
p200
S'True'
p201
sS'OL'
p202
S"<class 'gluon.html.OL'>"
p203
sS'TEXTAREA'
p204
S"<class 'gluon.html.TEXTAREA'>"
p205
sS'MENU'
p206
S"<class 'gluon.html.MENU'>"
p207
sS'p'
S'<Row {\'Contest_Name\': \'TODAY\', \'author\': None, \'...\': "MY OCNfads\\r\\nf[laewk;jf aklf ewa\'f\\r\\neaw"}>'
p208
sS'run_code'
p209
S'<function run_code>'
p210
sS'IS_IMAGE'
p211
S"<class 'gluon.validators.IS_IMAGE'>"
p212
sS'reverse_geocode'
p213
S'<function reverse_geocode>'
p214
sS'EM'
p215
S"<class 'gluon.html.EM'>"
p216
sS'CODE'
p217
S"<class 'gluon.html.CODE'>"
p218
sS'HTTP'
p219
S"<class 'gluon.http.HTTP'>"
p220
sS'HR'
p221
S"<class 'gluon.html.HR'>"
p222
sS'IS_DATETIME'
p223
S"<class 'gluon.validators.IS_DATETIME'>"
p224
sS'STYLE'
p225
S"<class 'gluon.html.STYLE'>"
p226
sS'LABEL'
p227
S"<class 'gluon.html.LABEL'>"
p228
sS'CLEANUP'
p229
S"<class 'gluon.validators.CLEANUP'>"
p230
sS'TIME_FACTOR'
p231
S'[1, 1, 2]'
p232
sS'SELECT'
p233
S"<class 'gluon.html.SELECT'>"
p234
sS'CENTER'
p235
S"<class 'gluon.html.CENTER'>"
p236
sS'prettydate'
p237
S'<function prettydate>'
p238
sS'threading'
p239
S"<module 'threading' from '/usr/lib64/python2.7/threading.pyc'>"
p240
sS'Crud'
p241
S"<class 'gluon.tools.Crud'>"
p242
sS'Auth'
p243
S"<class 'gluon.tools.Auth'>"
p244
sS'COL'
p245
S"<class 'gluon.html.COL'>"
p246
sS'__builtins__'
p247
S"{'ArithmeticError': <type 'exceptions.ArithmeticError'>, 'AssertionError': <type 'exceptions.AssertionError'>, 'AttributeError': <type 'exceptions.AttributeError'>, 'BaseException': <type 'exceptions.BaseException'>, 'BufferError': <type 'exceptions.BufferError'>, 'BytesWarning': <type 'exceptions.BytesWarning'>, 'DeprecationWarning': <type 'exceptions.DeprecationWarning'>, 'EOFError': <type 'exceptions.EOFError'>, 'Ellipsis': Ellipsis, 'EnvironmentError': <type 'exceptions.EnvironmentError'>, ...}"
p248
sS'HTML'
p249
S"<class 'gluon.html.HTML'>"
p250
sS'SQLFORM'
p251
S"<class 'gluon.sqlhtml.SQLFORM'>"
p252
sS'LOAD'
p253
S'<function LOAD>'
p254
sS'redirect'
p255
S'<function redirect>'
p256
sS'pastcontests'
p257
S"[<Row {'Contest_Name': 'First Contest', 'author':...'duration': 3L, 'id': 1L, 'Details': 'fdasfads'}>]"
p258
sS'FIELDSET'
p259
S"<class 'gluon.html.FIELDSET'>"
p260
sS'IS_EQUAL_TO'
p261
S"<class 'gluon.validators.IS_EQUAL_TO'>"
p262
sS'Popen'
p263
S"<class 'subprocess.Popen'>"
p264
sS'LANG_EXT'
p265
S"['cpp', 'c', 'java']"
p266
sS'embed64'
p267
S'<function embed64>'
p268
sS'IS_LIST_OF'
p269
S"<class 'gluon.validators.IS_LIST_OF'>"
p270
sS'__name__'
p271
S"'__restricted__'"
p272
sS'EMBED'
p273
S"<class 'gluon.html.EMBED'>"
p274
sS'_'
S'<function _>'
p275
sS'H2'
p276
S"<class 'gluon.html.H2'>"
p277
sS'H3'
p278
S"<class 'gluon.html.H3'>"
p279
sS'BUTTON'
p280
S"<class 'gluon.html.BUTTON'>"
p281
sS'H1'
p282
S"<class 'gluon.html.H1'>"
p283
sS'H6'
p284
S"<class 'gluon.html.H6'>"
p285
sS'H4'
p286
S"<class 'gluon.html.H4'>"
p287
sS'H5'
p288
S"<class 'gluon.html.H5'>"
p289
sS'UL'
p290
S"<class 'gluon.html.UL'>"
p291
sS'IS_UPPER'
p292
S"<class 'gluon.validators.IS_UPPER'>"
p293
sS'xmlescape'
p294
S'<function xmlescape>'
p295
sS'IS_TIME'
p296
S"<class 'gluon.validators.IS_TIME'>"
p297
sS'os'
p298
S"<module 'os' from '/usr/lib64/python2.7/os.pyc'>"
p299
sS'OPTION'
p300
S"<class 'gluon.html.OPTION'>"
p301
sS'TITLE'
p302
S"<class 'gluon.html.TITLE'>"
p303
sS'CRYPT'
p304
S"<class 'gluon.validators.CRYPT'>"
p305
sS'IS_EMPTY_OR'
p306
S"<class 'gluon.validators.IS_EMPTY_OR'>"
p307
sS'MARKMIN'
p308
S"<class 'gluon.html.MARKMIN'>"
p309
sS'Recaptcha2'
p310
S"<class 'gluon.tools.Recaptcha2'>"
p311
sS'presentcontests'
p312
S'[]'
p313
sS'INPUT'
p314
S"<class 'gluon.html.INPUT'>"
p315
sS'STRONG'
p316
S"<class 'gluon.html.STRONG'>"
p317
sS'mc2'
p318
S"'col-md-6'"
p319
sS'mc1'
p320
S"'col-md-9'"
p321
sS'mc0'
p322
S"'col-md-12'"
p323
sS'SCRIPT'
p324
S"<class 'gluon.html.SCRIPT'>"
p325
sS'STDOUT'
p326
S'-2'
p327
sS'PIPE'
p328
S'-1'
p329
sS'geocode'
p330
S'<function geocode>'
p331
sg83
S'<function call>'
p332
sS'TABLE'
p333
S"<class 'gluon.html.TABLE'>"
p334
sS'IS_IPV4'
p335
S"<class 'gluon.validators.IS_IPV4'>"
p336
sS'IS_LENGTH'
p337
S"<class 'gluon.validators.IS_LENGTH'>"
p338
sS'IS_IPV6'
p339
S"<class 'gluon.validators.IS_IPV6'>"
p340
sS'XML'
p341
S"<class 'gluon.html.XML'>"
p342
sS'Wiki'
p343
S"<class 'gluon.tools.Wiki'>"
p344
sS'B'
S"<class 'gluon.html.B'>"
p345
sS'IMG'
p346
S"<class 'gluon.html.IMG'>"
p347
sS'SQLTABLE'
p348
S"<class 'gluon.sqlhtml.SQLTABLE'>"
p349
sS'IS_MATCH'
p350
S"<class 'gluon.validators.IS_MATCH'>"
p351
sS'IS_ALPHANUMERIC'
p352
S"<class 'gluon.validators.IS_ALPHANUMERIC'>"
p353
sS'SPAN'
p354
S"<class 'gluon.html.SPAN'>"
p355
sS'IS_JSON'
p356
S"<class 'gluon.validators.IS_JSON'>"
p357
sS'IS_IPADDRESS'
p358
S"<class 'gluon.validators.IS_IPADDRESS'>"
p359
sS'IS_SLUG'
p360
S"<class 'gluon.validators.IS_SLUG'>"
p361
sS'check_output'
p362
S'<function check_output>'
p363
sS'BEAUTIFY'
p364
S"<class 'gluon.html.BEAUTIFY'>"
p365
sS'META'
p366
S"<class 'gluon.html.META'>"
p367
sS'SQLDB'
p368
S"<class 'pydal.base.DAL'>"
p369
sS'fetch'
p370
S'<function fetch>'
p371
sS'IS_DATE'
p372
S"<class 'gluon.validators.IS_DATE'>"
p373
sS'IS_EMAIL'
p374
S"<class 'gluon.validators.IS_EMAIL'>"
p375
sS'middle_column'
p376
S"'col-md-12'"
p377
sS'IS_NOT_EMPTY'
p378
S"<class 'gluon.validators.IS_NOT_EMPTY'>"
p379
sS'IS_FLOAT_IN_RANGE'
p380
S"<class 'gluon.validators.IS_FLOAT_IN_RANGE'>"
p381
sS'TBODY'
p382
S"<class 'gluon.html.TBODY'>"
p383
sS'CAT'
p384
S"<class 'gluon.html.CAT'>"
p385
sS'Field'
p386
S"<class 'pydal.objects.Field'>"
p387
sS'check_submission'
p388
S'<function check_submission>'
p389
sS'IS_LIST_OF_EMAILS'
p390
S"<class 'gluon.validators.IS_LIST_OF_EMAILS'>"
p391
sS'Mail'
p392
S"<class 'gluon.tools.Mail'>"
p393
sS'DIV'
p394
S"<class 'gluon.html.DIV'>"
p395
sS'LEGEND'
p396
S"<class 'gluon.html.LEGEND'>"
p397
sS'compile_code'
p398
S'<function compile_code>'
p399
sS'DAL'
p400
S"<class 'pydal.base.DAL'>"
p401
sS'ASSIGNJS'
p402
S'<function ASSIGNJS>'
p403
sS'TR'
p404
S"<class 'gluon.html.TR'>"
p405
sS'LI'
p406
S"<class 'gluon.html.LI'>"
p407
sS'right_sidebar_enabled'
p408
g158
sS'TH'
p409
S"<class 'gluon.html.TH'>"
p410
sS'TD'
p411
S"<class 'gluon.html.TD'>"
p412
sS'PluginManager'
p413
S"<class 'gluon.tools.PluginManager'>"
p414
sS'IS_URL'
p415
S"<class 'gluon.validators.IS_URL'>"
p416
sS'A'
S"<class 'gluon.html.A'>"
p417
sS'HEAD'
p418
S"<class 'gluon.html.HEAD'>"
p419
sS'IS_DATETIME_IN_RANGE'
p420
S"<class 'gluon.validators.IS_DATETIME_IN_RANGE'>"
p421
sS'FORM'
p422
S"<class 'gluon.html.FORM'>"
p423
sS'I'
S"<class 'gluon.html.I'>"
p424
sS'CalledProcessError'
p425
S"<class 'subprocess.CalledProcessError'>"
p426
sS'LANGUAGES'
p427
S"['GNU G++ 4.3', 'GNU GCC 4.3', 'GNU GCJ']"
p428
sS'IS_NOT_IN_DB'
p429
S"<class 'gluon.validators.IS_NOT_IN_DB'>"
p430
sS'eval'
p431
S'<function eval>'
p432
sS'check_call'
p433
S'<function check_call>'
p434
sg132
S"<Storage {'body': <cStringIO.StringO object at 0... at 0x7f1cf8140398>, 'view': 'contest/all.html'}>"
p435
sS'THEAD'
p436
S"<class 'gluon.html.THEAD'>"
p437
sS'ANY_OF'
p438
S"<class 'gluon.validators.ANY_OF'>"
p439
sS'IS_NULL_OR'
p440
S"<class 'gluon.validators.IS_EMPTY_OR'>"
p441
sS'COLGROUP'
p442
S"<class 'gluon.html.COLGROUP'>"
p443
sg56
S"<Storage {'_vars': None, 'function': 'all', 'coo...ocuments/Project_OJ/Redefined/applications/oj/'}>"
p444
sS'IS_EXPR'
p445
S"<class 'gluon.validators.IS_EXPR'>"
p446
sS'T'
S'<gluon.languages.translator object>'
p447
sS'IS_IN_SET'
p448
S"<class 'gluon.validators.IS_IN_SET'>"
p449
sS'IS_UPLOAD_FILENAME'
p450
S"<class 'gluon.validators.IS_UPLOAD_FILENAME'>"
p451
sS'LANG_NICK'
p452
S"['CPP', 'C', 'JAVA']"
p453
sS'TT'
p454
S"<class 'gluon.html.TT'>"
p455
sS'IS_DECIMAL_IN_RANGE'
p456
S"<class 'gluon.validators.IS_DECIMAL_IN_RANGE'>"
p457
sssS'traceback'
p458
S'Traceback (most recent call last):\n  File "/home/sourav/Documents/Project_OJ/Redefined/gluon/restricted.py", line 227, in restricted\n    exec ccode in environment\n  File "/home/sourav/Documents/Project_OJ/Redefined/applications/oj/views/contest/all.html", line 85, in <module>\n    <td><a href={{=URL(\'contest\',\'view\',args=p.id)}}>{{=p.Contest_Name}}</td>\nAttributeError: \'NoneType\' object has no attribute \'first_name\'\n'
p459
s.