(dp1
S'output'
p2
S"<type 'exceptions.AttributeError'> 'NoneType' object has no attribute 'first_name'"
p3
sS'layer'
p4
S'/home/sourav/Documents/Project_OJ/Redefined/applications/oj/views/blog/blog_main.html'
p5
sS'code'
p6
S'response.write(\'<!DOCTYPE html>\\n<!--[if (gt IE 9)|!(IE)]><!--> <html class="no-js" lang="\', escape=False)\nresponse.write(T.accepted_language or \'en\')\nresponse.write(\'"> <!--<![endif]-->\\n  <head>\\n    <meta charset="utf-8">\\n    <!-- www.phpied.com/conditional-comments-block-downloads/ -->\\n    <!-- Always force latest IE rendering engine\\n         (even in intranet) & Chrome Frame\\n         Remove this if you use the .htaccess -->\\n    <meta http-equiv="X-UA-Compatible" content="IE=edge\', escape=False)\nresponse.write(not request.is_local and \',chrome=1\' or \'\')\nresponse.write(\'">\\n    <!--  Mobile Viewport Fix\\n          j.mp/mobileviewport & davidbcalhoun.com/2010/viewport-metatag\\n          device-width: Occupy full width of the screen in its current orientation\\n          initial-scale = 1.0 retains dimensions instead of zooming out if page height > device height\\n          user-scalable = yes allows the user to zoom in -->\\n    <meta name="viewport" content="width=device-width, initial-scale=1.0">\\n    <title>\', escape=False)\nresponse.write(response.title or request.application)\nresponse.write(\'</title>\\n    <!-- http://dev.w3.org/html5/markup/meta.name.html -->\\n    <meta name="application-name" content="\', escape=False)\nresponse.write(request.application)\nresponse.write(\'">\\n    <!-- Speaking of Google, don\\\'t forget to set your site up:\\n         http://google.com/webmasters -->\\n    <meta name="google-site-verification" content="">\\n    <!-- include stylesheets -->\\n    <link rel="stylesheet" href="https://maxcdn.bootstrapcdn.com/bootstrap/4.0.0-alpha/css/bootstrap.min.css">\\n    <script src="https://maxcdn.bootstrapcdn.com/bootstrap/4.0.0-alpha/js/bootstrap.min.js"></script>\\n    <link rel="stylesheet" href="\', escape=False)\nresponse.write(URL(\'static\',\'css/bootstrap.min.css\'))\nresponse.write(\'"/>\\n    <link rel="stylesheet" href="\', escape=False)\nresponse.write(URL(\'static\',\'css/web2py-bootstrap3.css\'))\nresponse.write(\'"/>\\n    <link rel="stylesheet" href="\', escape=False)\nresponse.write(URL(\'static\',\'css/custom.css\'))\nresponse.write(\'"/>\\n    <link rel="stylesheet" href="\', escape=False)\nresponse.write(URL(\'static\',\'css/innermenu.css\'))\nresponse.write(\'"/>\\n    <link rel="shortcut icon" href="\', escape=False)\nresponse.write(URL(\'static\',\'images/favicon.ico\'))\nresponse.write(\'" type="image/x-icon">\\n    <link rel="apple-touch-icon" href="\', escape=False)\nresponse.write(URL(\'static\',\'images/favicon.png\'))\nresponse.write(\'">\\n    <!-- All JavaScript at the bottom, except for Modernizr which enables\\n         HTML5 elements & feature detects -->\\n    <script src="\', escape=False)\nresponse.write(URL(\'static\',\'js/modernizr-2.8.3.min.js\'))\nresponse.write(\'"></script>\\n    <!--[if lt IE 9]>\\n        <script src="\', escape=False)\nresponse.write(URL(\'static\',\'js/respond-1.4.2.min.js\'))\nresponse.write(\'"></script>\\n        <![endif]-->\\n    <!-- Favicons -->\\n    \', escape=False)\nresponse.write(\'<script type="text/javascript"><!--\\n    // These variables are used by the web2py_ajax_init function in web2py_ajax.js (which is loaded below).\\n    var w2p_ajax_confirm_message = "\', escape=False)\nresponse.write(T(\'Are you sure you want to delete this object?\'))\nresponse.write(\'";\\n    var w2p_ajax_disable_with_message = "\', escape=False)\nresponse.write(T(\'Working...\'))\nresponse.write(\'";\\n    var w2p_ajax_date_format = "\', escape=False)\nresponse.write(T(\'%Y-%m-%d\'))\nresponse.write(\'";\\n    var w2p_ajax_datetime_format = "\', escape=False)\nresponse.write(T(\'%Y-%m-%d %H:%M:%S\'))\nresponse.write(\'";\\n    var ajax_error_500 = \\\'\', escape=False)\nresponse.write(T.M(\'An error occured, please [[reload %s]] the page\') % URL(args=request.args, vars=request.get_vars))\nresponse.write("\'\\n    //--></script>\\n", escape=False)\nresponse.files.insert(0,URL(\'static\',\'js/jquery.js\'))\nresponse.files.insert(1,URL(\'static\',\'css/calendar.css\'))\nresponse.files.insert(2,URL(\'static\',\'js/calendar.js\'))\nresponse.files.insert(3,URL(\'static\',\'js/web2py.js\'))\nresponse.include_meta()\nresponse.include_files()\nresponse.write(\'\\n\', escape=False)\nresponse.write(\' <!-- this includes jquery.js, calendar.js/.css and web2py.js -->\\n    \', escape=False)\nresponse.write(\'\\n    \', escape=False)\n# using sidebars need to know what sidebar you want to use\nmc0 = \'col-md-12\'\nmc1 = \'col-md-9\'\nmc2 = \'col-md-6\'\nleft_sidebar_enabled = globals().get(\'left_sidebar_enabled\', False)\nright_sidebar_enabled = globals().get(\'right_sidebar_enabled\', False)\nmiddle_column = {0: mc0, 1: mc1, 2: mc2}[\n(left_sidebar_enabled and 1 or 0)+(right_sidebar_enabled and 1 or 0)]\nresponse.write(\'\\n  </head>\\n  <body>\\n    <!--[if lt IE 8]><p class="browserupgrade">You are using an <strong>outdated</strong> browser. Please <a href="http://browsehappy.com/">upgrade your browser</a> to improve your experience.</p><![endif]-->\\n    <div class="w2p_flash alert alert-dismissable">\', escape=False)\nresponse.write(response.flash or \'\')\nresponse.write(\'</div>\\n    <!-- Navbar ======================================= -->\\n    <!-- <nav class="navbar navbar-default navbar-fixed-top" role="navigation"> -->\\n\\n      <div class="container-fluid" role="header">\\n        <div class="row" role="logo">\\n        <div class="col-md-4">\\n          <img src="\', escape=False)\nresponse.write(URL(\'static\',\'images/logo.png\'))\nresponse.write(\'" class="logo">\\n        </div>\\n        <div class="col-md-8">\\n              <!-- <center>ONLINE JUDGE</center> -->\\n          </div>\\n        </div>\\n          <nav class="menu navbar navbar-default">\\n\\n            <div class="collapse navbar-collapse navbar-ex1-collapse">\\n              <ul class="nav navbar-nav navbar-right">\\n                \', escape=False)\nresponse.write(\'auth\' in globals() and auth.navbar(\'Welcome\',mode=\'dropdown\') or \'\')\nresponse.write(\'\\n              </ul>\\n              \', escape=False)\nresponse.write(MENU(response.menu, _class=\'nav navbar-nav\',li_class=\'\',ul_class=\'dropdown-menu\'))\nresponse.write(\'\\n              <!-- <ul class="nav navbar-nav">\\n                <li><a href="\', escape=False)\nresponse.write(URL(\'default\',\'index\'))\nresponse.write(\'">HOME</a></li>\\n\\n                <li><a href="\', escape=False)\nresponse.write(URL(\'contest\',\'all\'))\nresponse.write(\'">Compete</a></li>\\n                <li><a href="\', escape=False)\nresponse.write(URL(\'problemset\',\'problemset\'))\nresponse.write(\'">Practice</a></li>\\n              </ul> -->\\n            </div>\\n          </nav>\\n      </div>\\n    <!-- </nav> -->\\n    <!-- Masthead ===================================== -->\\n    \', escape=False)\nresponse.write(\'\\n    \', escape=False)\nresponse.write(\'\\n    <!-- Main ========================================= -->\\n    <!-- Begin page content -->\\n    <div class="container-fluid main-container">\\n        \', escape=False)\nresponse.write(\'\\n        \', escape=False)\nresponse.write(\'\\n<div class="row innerheadercontainer">\\n  <div class="col-md-12 innerheader">\\n        <div class="row pagetitle">\\n          <div class="col-md-6">\\n            <h3>Blog</h3>\\n          </div>\\n          <div class="col-md-6" style="text-align:right;">\\n            <a href="\', escape=False)\nresponse.write(URL(\'blog\',\'post_blog\'))\nresponse.write(\'"><input type="button" class="btn btn-default" value="Post Blog"></a>\\n          </div>\\n        </div>\\n  </div>\\n</div>\\n<div class="row">\\n    <div align="center">\\n\\n      <img width="800px" height="150px"\\n      src="\', escape=False)\nresponse.write(URL(\'static\', \'images/b.png\'))\nresponse.write(\'" />\\n\\n    </div>\\n\\n</div>\\n<div class="row">\\n  <div class="col-md-3">\\n    <h3><u>All Blogs Till Now</u></h3>\\n  </div>\\n  <div class="col-md-3">\\n    <h4>&nbsp;</h4>\\n  </div>\\n  <div class="col-md-2">\\n    &nbsp;\\n  </div>\\n  <div class="col-md-2" align="right" style="font-color:black">\\n    <h4><u><a href="\', escape=False)\nresponse.write(URL(\'blog\',\'blog_main\',vars=dict(orderby=\'1\')))\nresponse.write(\'">Recent</a></u></h4>\\n  </div>\\n  <div class="col-md-2" style="font-color:black">\\n    <h4><u><a href="\', escape=False)\nresponse.write(URL(\'blog\',\'blog_main\',vars=dict(orderby=\'2\')))\nresponse.write(\'">Most Liked</a></u></h4>\\n  </div>\\n</div>\\n<br />\\n<hr />\\n\', escape=False)\nfor i,b in enumerate(rows):\n    response.write(\'\\n      \', escape=False)\n    if i==items_per_page: break\n    response.write(\'\\n<div class="row">\\n\\n  <div class="col-md-8" align="left">\\n    <a href="\', escape=False)\n    response.write(URL(\'blog\',\'blog_show\',vars=dict(pi=b.id,page=0)))\n    response.write(\'"><h3><b>\', escape=False)\n    response.write(b.title)\n    response.write(\'</b></h3></a>\\n    <div class="row" align="center">\\n      <h5><b> By \', escape=False)\n    response.write(b.user_id.first_name)\n    response.write(\'</b></h5>\\n\\n</div>\\n</div>\\n<div class="col-md-2" align="left">\\n  <h4>\', escape=False)\n    response.write(b.views)\n    response.write(\'</h4>\\n  <div class="row">\\n    <h5><b>Views</b></h5>\\n  </div>\\n</div>\\n<div class="col-md-2" align="left">\\n  <h4>\', escape=False)\n    response.write(b.number_likes)\n    response.write(\'</h4>\\n  <div class="row" >\\n    <h5><b>Likes</b></h5>\\n  </div>\\n  </div>\\n\\n</div>\\n<hr />\\n\', escape=False)\n    pass\nresponse.write(\'\\n\', escape=False)\nif page:\n    response.write(\'\\n  <a href="\', escape=False)\n    response.write(URL(args=[page-1]))\n    response.write(\'">previous</a>\\n\', escape=False)\n    pass\nresponse.write(\'\\n\', escape=False)\nif len(rows)>items_per_page:\n    response.write(\'\\n<a href="\', escape=False)\n    response.write(URL(args=[page+1]))\n    response.write(\'">next</a>\\n\', escape=False)\n    pass\nresponse.write(\'\\n\', escape=False)\nresponse.write(\'\\n        \', escape=False)\nresponse.write(\'\\n    </div>\\n\\n    \', escape=False)\nresponse.write(\' <!-- this is default footer -->\\n    <footer class="footer">\\n      <div class="container-fluid footer-container">\\n        <div class="col-md-4 col-sm-4 col-md-offset-5">\', escape=False)\nresponse.write(T(\'Copyright\'))\nresponse.write(\' &#169; \', escape=False)\nresponse.write(request.now.year)\nresponse.write(\'</div>\\n          <div id="poweredBy" class="pull-right">\\n            \', escape=False)\nresponse.write(T(\'Developed by\'))\nresponse.write(\'\\n            <font style="font-style:italic;color:gray">Swagboomers</font>\\n          </div>\\n      </div>\\n    </footer>\\n    \', escape=False)\nresponse.write(\'\\n    <!-- The javascript =============================== -->\\n    <script src="\', escape=False)\nresponse.write(URL(\'static\',\'js/bootstrap.min.js\'))\nresponse.write(\'"></script>\\n    <script src="\', escape=False)\nresponse.write(URL(\'static\',\'js/web2py-bootstrap3.js\'))\nresponse.write(\'"></script>\\n    <script src="\', escape=False)\nresponse.write(URL(\'static\',\'js/menu_scroll.js\'))\nresponse.write(\'"></script>\\n    <script src="\', escape=False)\nresponse.write(URL(\'static\',\'js/innermenu.js\'))\nresponse.write(\'"></script>\\n    \', escape=False)\nresponse.write(\'\\n    \', escape=False)\nif response.google_analytics_id:\n    response.write(\'\\n    <!-- Analytics ==================================== -->\\n    <script src="\', escape=False)\n    response.write(URL(\'static\',\'js/analytics.min.js\'))\n    response.write(\'"></script>\\n    <script type="text/javascript">\\n      analytics.initialize({\\n      \\\'Google Analytics\\\':{trackingId:\\\'\', escape=False)\n    response.write(response.google_analytics_id)\n    response.write("\'}\\n      });\\n    </script>\\n    ", escape=False)\n    pass\nresponse.write(\'\\n    <!-- Share ============================y============ -->\\n    <!-- <script src="\', escape=False)\nresponse.write(URL(\'static\',\'js/share.js\',vars=dict(static=URL(\'static\',\'images\'))))\nresponse.write(\'"></script> -->\\n  </body>\\n</html>\\n\', escape=False)'
p7
sS'snapshot'
p8
(dp9
sS'traceback'
p10
S'Traceback (most recent call last):\n  File "/home/sourav/Documents/Project_OJ/Redefined/gluon/restricted.py", line 227, in restricted\n    exec ccode in environment\n  File "/home/sourav/Documents/Project_OJ/Redefined/applications/oj/views/blog/blog_main.html", line 89, in <module>\nAttributeError: \'NoneType\' object has no attribute \'first_name\'\n'
p11
s.