(dp1
S'output'
p2
S"<type 'exceptions.AttributeError'> 'function' object has no attribute 'think'"
p3
sS'layer'
p4
S'/home/sourav/Documents/Project_OJ/Redefined/applications/oj/views/default/problem.html'
p5
sS'code'
p6
S'response.write(\'<!DOCTYPE html>\\n<!--[if (gt IE 9)|!(IE)]><!--> <html class="no-js" lang="\', escape=False)\nresponse.write(T.accepted_language or \'en\')\nresponse.write(\'"> <!--<![endif]-->\\n  <head>\\n    <meta charset="utf-8">\\n    <!-- www.phpied.com/conditional-comments-block-downloads/ -->\\n    <!-- Always force latest IE rendering engine\\n         (even in intranet) & Chrome Frame\\n         Remove this if you use the .htaccess -->\\n    <meta http-equiv="X-UA-Compatible" content="IE=edge\', escape=False)\nresponse.write(not request.is_local and \',chrome=1\' or \'\')\nresponse.write(\'">\\n    <!--  Mobile Viewport Fix\\n          j.mp/mobileviewport & davidbcalhoun.com/2010/viewport-metatag\\n          device-width: Occupy full width of the screen in its current orientation\\n          initial-scale = 1.0 retains dimensions instead of zooming out if page height > device height\\n          user-scalable = yes allows the user to zoom in -->\\n    <meta name="viewport" content="width=device-width, initial-scale=1.0">\\n    <title>\', escape=False)\nresponse.write(response.title or request.application)\nresponse.write(\'</title>\\n    <!-- http://dev.w3.org/html5/markup/meta.name.html -->\\n    <meta name="application-name" content="\', escape=False)\nresponse.write(request.application)\nresponse.write(\'">\\n    <!-- Speaking of Google, don\\\'t forget to set your site up:\\n         http://google.com/webmasters -->\\n    <meta name="google-site-verification" content="">\\n    <!-- include stylesheets -->\\n    <link rel="stylesheet" href="https://maxcdn.bootstrapcdn.com/bootstrap/4.0.0-alpha/css/bootstrap.min.css">\\n    <script src="https://maxcdn.bootstrapcdn.com/bootstrap/4.0.0-alpha/js/bootstrap.min.js"></script>\\n    <link rel="stylesheet" href="\', escape=False)\nresponse.write(URL(\'static\',\'css/bootstrap.min.css\'))\nresponse.write(\'"/>\\n    <link rel="stylesheet" href="\', escape=False)\nresponse.write(URL(\'static\',\'css/web2py-bootstrap3.css\'))\nresponse.write(\'"/>\\n    <link rel="stylesheet" href="\', escape=False)\nresponse.write(URL(\'static\',\'css/custom.css\'))\nresponse.write(\'"/>\\n    <link rel="stylesheet" href="\', escape=False)\nresponse.write(URL(\'static\',\'css/innermenu.css\'))\nresponse.write(\'"/>\\n    <link rel="shortcut icon" href="\', escape=False)\nresponse.write(URL(\'static\',\'images/favicon.ico\'))\nresponse.write(\'" type="image/x-icon">\\n    <link rel="apple-touch-icon" href="\', escape=False)\nresponse.write(URL(\'static\',\'images/favicon.png\'))\nresponse.write(\'">\\n    <!-- All JavaScript at the bottom, except for Modernizr which enables\\n         HTML5 elements & feature detects -->\\n    <script src="\', escape=False)\nresponse.write(URL(\'static\',\'js/modernizr-2.8.3.min.js\'))\nresponse.write(\'"></script>\\n    <!--[if lt IE 9]>\\n        <script src="\', escape=False)\nresponse.write(URL(\'static\',\'js/respond-1.4.2.min.js\'))\nresponse.write(\'"></script>\\n        <![endif]-->\\n    <!-- Favicons -->\\n    \', escape=False)\nresponse.write(\'<script type="text/javascript"><!--\\n    // These variables are used by the web2py_ajax_init function in web2py_ajax.js (which is loaded below).\\n    var w2p_ajax_confirm_message = "\', escape=False)\nresponse.write(T(\'Are you sure you want to delete this object?\'))\nresponse.write(\'";\\n    var w2p_ajax_disable_with_message = "\', escape=False)\nresponse.write(T(\'Working...\'))\nresponse.write(\'";\\n    var w2p_ajax_date_format = "\', escape=False)\nresponse.write(T(\'%Y-%m-%d\'))\nresponse.write(\'";\\n    var w2p_ajax_datetime_format = "\', escape=False)\nresponse.write(T(\'%Y-%m-%d %H:%M:%S\'))\nresponse.write(\'";\\n    var ajax_error_500 = \\\'\', escape=False)\nresponse.write(T.M(\'An error occured, please [[reload %s]] the page\') % URL(args=request.args, vars=request.get_vars))\nresponse.write("\'\\n    //--></script>\\n", escape=False)\nresponse.files.insert(0,URL(\'static\',\'js/jquery.js\'))\nresponse.files.insert(1,URL(\'static\',\'css/calendar.css\'))\nresponse.files.insert(2,URL(\'static\',\'js/calendar.js\'))\nresponse.files.insert(3,URL(\'static\',\'js/web2py.js\'))\nresponse.include_meta()\nresponse.include_files()\nresponse.write(\'\\n\', escape=False)\nresponse.write(\' <!-- this includes jquery.js, calendar.js/.css and web2py.js -->\\n    \', escape=False)\nresponse.write(\'\\n    \', escape=False)\n# using sidebars need to know what sidebar you want to use\nmc0 = \'col-md-12\'\nmc1 = \'col-md-9\'\nmc2 = \'col-md-6\'\nleft_sidebar_enabled = globals().get(\'left_sidebar_enabled\', False)\nright_sidebar_enabled = globals().get(\'right_sidebar_enabled\', False)\nmiddle_column = {0: mc0, 1: mc1, 2: mc2}[\n(left_sidebar_enabled and 1 or 0)+(right_sidebar_enabled and 1 or 0)]\nresponse.write(\'\\n  </head>\\n  <body>\\n    <!--[if lt IE 8]><p class="browserupgrade">You are using an <strong>outdated</strong> browser. Please <a href="http://browsehappy.com/">upgrade your browser</a> to improve your experience.</p><![endif]-->\\n    <div class="w2p_flash alert alert-dismissable">\', escape=False)\nresponse.write(response.flash or \'\')\nresponse.write(\'</div>\\n    <!-- Navbar ======================================= -->\\n    <!-- <nav class="navbar navbar-default navbar-fixed-top" role="navigation"> -->\\n\\n      <div class="container-fluid" role="header">\\n        <div class="row" role="logo">\\n        <div class="col-md-4">\\n          <img src="\', escape=False)\nresponse.write(URL(\'static\',\'images/logo.png\'))\nresponse.write(\'" class="logo">\\n        </div>\\n        <div class="col-md-8">\\n              <!-- <center>ONLINE JUDGE</center> -->\\n          </div>\\n        </div>\\n          <nav class="menu navbar navbar-default">\\n\\n            <div class="collapse navbar-collapse navbar-ex1-collapse">\\n              <ul class="nav navbar-nav navbar-right">\\n                \', escape=False)\nresponse.write(\'auth\' in globals() and auth.navbar(\'Welcome\',mode=\'dropdown\') or \'\')\nresponse.write(\'\\n              </ul>\\n              \', escape=False)\nresponse.write(MENU(response.menu, _class=\'nav navbar-nav\',li_class=\'\',ul_class=\'dropdown-menu\'))\nresponse.write(\'\\n              <!-- <ul class="nav navbar-nav">\\n                <li><a href="\', escape=False)\nresponse.write(URL(\'default\',\'index\'))\nresponse.write(\'">HOME</a></li>\\n\\n                <li><a href="\', escape=False)\nresponse.write(URL(\'contest\',\'all\'))\nresponse.write(\'">Compete</a></li>\\n                <li><a href="\', escape=False)\nresponse.write(URL(\'problemset\',\'problemset\'))\nresponse.write(\'">Practice</a></li>\\n              </ul> -->\\n            </div>\\n          </nav>\\n      </div>\\n    <!-- </nav> -->\\n    <!-- Masthead ===================================== -->\\n    \', escape=False)\nresponse.write(\'\\n    \', escape=False)\nresponse.write(\'\\n    <!-- Main ========================================= -->\\n    <!-- Begin page content -->\\n    <div class="container-fluid main-container">\\n        \', escape=False)\nresponse.write(\'\\n        \', escape=False)\nresponse.write(\'\\n<link rel="stylesheet" href="\', escape=False)\nresponse.write(URL(\'static\',\'css/anjan.css\'))\nresponse.write(\'">\\n<script type="text/javascript">\\n$(document).ready(function() {\\n  document.getElementById("changestars1").style.width=Math.max(0, (Math.min(5, \', escape=False)\nresponse.write(((float)(problems.think)/2))\nresponse.write(\')))*16+"px";\\n});\\n$(document).ready(function() {\\n  document.getElementById("changestars2").style.width=Math.max(0, (Math.min(5, \', escape=False)\nresponse.write(((float)(problems.code)/2.0))\nresponse.write(\')))*16+"px";\\n});\\n</script>\\n\\n\\n<div class="row innerheadercontainer">\\n\\n  <div class="col-md-12 innerheader">\\n\\n    <div class="row">\\n      <div class="col-md-5">\\n        <div class="row pagepath">\\n          <div class="col-md-12">\\n            <a href="">Contests </a>>> <a href="">Problems</a> >> \', escape=False)\nresponse.write(problems.name)\nresponse.write(\'\\n          </div>\\n        </div>\\n        <div class="row pagetitle">\\n          <div class="col-md-12">\\n            <h3>\', escape=False)\nresponse.write(problems.name)\nresponse.write(\'</h3>\\n          </div>\\n        </div>\\n\\n      </div>\\n\\n      <div class="col-md-7">\\n        <div id=\\\'cssmenu\\\'>\\n          <ul>\\n            <li class="active"><a href=\\\'\', escape=False)\nresponse.write(URL(\'contest\',\'view\',args=problems.contest_id))\nresponse.write("\'>PROBLEMS</a></li>\\n            ", escape=False)\nif auth.is_logged_in():\n    response.write("<li><a href=\'", escape=False)\n    response.write(URL(\'contest\',\'submissions\',args=[problems.contest_id,\'my\']))\n    response.write("\'>MY SUBMISSIONS</a></li>", escape=False)\n    pass\nresponse.write("\\n            <li><a href=\'", escape=False)\nresponse.write(URL(\'contest\',\'allsubmissions\',args=problems.contest_id))\nresponse.write("\'>ALL SUBMISSIONS</a></li>\\n            <li><a href=\'", escape=False)\nresponse.write(URL(\'contest\',\'leaderboard\',args=problems.contest_id))\nresponse.write(\'\\\'>LEADERBOARD</a></li>\\n          </ul>\\n        </div>\\n      </div>\\n    </div>\\n\\n  </div>\\n\\n</div>\\n<div class="row">\\n  <div class="col-md-8">\\n    \', escape=False)\nresponse.write(PRE(XML(problems.statement)))\nresponse.write(\'\\n    <div class="row">\\n      <div class="col-md-6" style="font-size:25px">Sample Input : </div>\\n    </div>\\n    <div class="row">\\n      <div class="col-md-12"><div class="io">\', escape=False)\nresponse.write(PRE(XML(problems.sample_input)))\nresponse.write(\'</div></div>\\n    </div>\\n    <br/>\\n    <div class="row">\\n      <div class="col-md-6" style="font-size:25px">Sample Output : </div>\\n    </div>\\n    <div class="row">\\n      <div class="col-md-12"><div class="io">\', escape=False)\nresponse.write(PRE(XML(problems.sample_output)))\nresponse.write(\'</div></div>\\n    </div>\\n  </div>\\n\\n  <div class="col-md-4">\\n    <div class="row">\\n      <div class="col-md-7">Correct Submissions:</div><div class="col-md-5">12345678</div>\\n    </div>\\n    <div class="row">\\n      <div class="col-md-7">Thinking Capabitility:</div><div class="col-md-5"> <span class="stars" title="\', escape=False)\nresponse.write(problems.think)\nresponse.write(\' / 10"><span id="changestars1"></span></span></div>\\n    </div>\\n    <div class="row">\\n      <div class="col-md-7">Coding Intensive</div><div class="col-md-5"> <span class="stars" title="\', escape=False)\nresponse.write(problems.code)\nresponse.write(\' / 10"><span id="changestars2"></span></span></div>\\n    </div><br>\\n    \\n    <div class="row">\\n      <div class="col-md-12 graybg">\\n        Submit code\\n        <hr><div style="font-size:1.3rem;">\\n      \', escape=False)\nresponse.write(form)\nresponse.write(\'\\n    </div></div>\\n    </div>\\n  </div>\\n</div>\\n<br/>\\n\', escape=False)\nresponse.write(\'\\n        \', escape=False)\nresponse.write(\'\\n    </div>\\n\\n    \', escape=False)\nresponse.write(\' <!-- this is default footer -->\\n    <footer class="footer">\\n      <div class="container-fluid footer-container">\\n        <div class="col-md-4 col-sm-4 col-md-offset-5">\', escape=False)\nresponse.write(T(\'Copyright\'))\nresponse.write(\' &#169; \', escape=False)\nresponse.write(request.now.year)\nresponse.write(\'</div>\\n          <div id="poweredBy" class="pull-right">\\n            \', escape=False)\nresponse.write(T(\'Developed by\'))\nresponse.write(\'\\n            <font style="font-style:italic;color:gray">Swagboomers</font>\\n          </div>\\n      </div>\\n    </footer>\\n    \', escape=False)\nresponse.write(\'\\n    <!-- The javascript =============================== -->\\n    <script src="\', escape=False)\nresponse.write(URL(\'static\',\'js/bootstrap.min.js\'))\nresponse.write(\'"></script>\\n    <script src="\', escape=False)\nresponse.write(URL(\'static\',\'js/web2py-bootstrap3.js\'))\nresponse.write(\'"></script>\\n    <script src="\', escape=False)\nresponse.write(URL(\'static\',\'js/menu_scroll.js\'))\nresponse.write(\'"></script>\\n    <script src="\', escape=False)\nresponse.write(URL(\'static\',\'js/innermenu.js\'))\nresponse.write(\'"></script>\\n    \', escape=False)\nresponse.write(\'\\n    \', escape=False)\nif response.google_analytics_id:\n    response.write(\'\\n    <!-- Analytics ==================================== -->\\n    <script src="\', escape=False)\n    response.write(URL(\'static\',\'js/analytics.min.js\'))\n    response.write(\'"></script>\\n    <script type="text/javascript">\\n      analytics.initialize({\\n      \\\'Google Analytics\\\':{trackingId:\\\'\', escape=False)\n    response.write(response.google_analytics_id)\n    response.write("\'}\\n      });\\n    </script>\\n    ", escape=False)\n    pass\nresponse.write(\'\\n    <!-- Share ============================y============ -->\\n    <!-- <script src="\', escape=False)\nresponse.write(URL(\'static\',\'js/share.js\',vars=dict(static=URL(\'static\',\'images\'))))\nresponse.write(\'"></script> -->\\n  </body>\\n</html>\\n\', escape=False)'
p7
sS'snapshot'
p8
(dp9
S'exception'
p10
(dp11
S'__hash__'
p12
S"<method-wrapper '__hash__' of exceptions.AttributeError object>"
p13
sS'__setattr__'
p14
S"<method-wrapper '__setattr__' of exceptions.AttributeError object>"
p15
sS'__reduce_ex__'
p16
S'<built-in method __reduce_ex__ of exceptions.AttributeError object>'
p17
sS'__getslice__'
p18
S"<method-wrapper '__getslice__' of exceptions.AttributeError object>"
p19
sS'__getitem__'
p20
S"<method-wrapper '__getitem__' of exceptions.AttributeError object>"
p21
sS'__setstate__'
p22
S'<built-in method __setstate__ of exceptions.AttributeError object>'
p23
sS'args'
p24
S'("\'function\' object has no attribute \'think\'",)'
p25
sS'__reduce__'
p26
S'<built-in method __reduce__ of exceptions.AttributeError object>'
p27
sS'__str__'
p28
S"<method-wrapper '__str__' of exceptions.AttributeError object>"
p29
sS'__format__'
p30
S'<built-in method __format__ of exceptions.AttributeError object>'
p31
sS'__getattribute__'
p32
S"<method-wrapper '__getattribute__' of exceptions.AttributeError object>"
p33
sS'__class__'
p34
S"<type 'exceptions.AttributeError'>"
p35
sS'__unicode__'
p36
S'<built-in method __unicode__ of exceptions.AttributeError object>'
p37
sS'__delattr__'
p38
S"<method-wrapper '__delattr__' of exceptions.AttributeError object>"
p39
sS'__subclasshook__'
p40
S'<built-in method __subclasshook__ of type object>'
p41
sS'__repr__'
p42
S"<method-wrapper '__repr__' of exceptions.AttributeError object>"
p43
sS'__dict__'
p44
S'{}'
p45
sS'__sizeof__'
p46
S'<built-in method __sizeof__ of exceptions.AttributeError object>'
p47
sS'__doc__'
p48
S"'Attribute not found.'"
p49
sS'__init__'
p50
S"<method-wrapper '__init__' of exceptions.AttributeError object>"
p51
sS'__new__'
p52
S'<built-in method __new__ of type object>'
p53
ssS'evalue'
p54
S"'function' object has no attribute 'think'"
p55
sS'request'
p56
cgluon.html
XML_unpickle
p57
(S'sd\\\x00\x00<div><table><tr><td style="font-weight:bold;vertical-align:top;">ajax</td><td style="vertical-align:top;">:</td><td><div>False</div></td></tr><tr><td style="font-weight:bold;vertical-align:top;">application</td><td style="vertical-align:top;">:</td><td><div>oj</div></td></tr><tr><td style="font-weight:bold;vertical-align:top;">args</td><td style="vertical-align:top;">:</td><td><div><table><tr><td><div>1</div></td></tr></table></div></td></tr><tr><td style="font-weight:bold;vertical-align:top;">cid</td><td style="vertical-align:top;">:</td><td><div>None</div></td></tr><tr><td style="font-weight:bold;vertical-align:top;">client</td><td style="vertical-align:top;">:</td><td><div>127.0.0.1</div></td></tr><tr><td style="font-weight:bold;vertical-align:top;">controller</td><td style="vertical-align:top;">:</td><td><div>default</div></td></tr><tr><td style="font-weight:bold;vertical-align:top;">cookies</td><td style="vertical-align:top;">:</td><td><div><table><tr><td style="font-weight:bold;vertical-align:top;">session_id_admin</td><td style="vertical-align:top;">:</td><td><div>127.0.0.1-3c391180-9100-434d-9379-ca9d2869cb5d<table><tr><td style="font-weight:bold;vertical-align:top;">comment</td><td style="vertical-align:top;">:</td><td><div></div></td></tr><tr><td style="font-weight:bold;vertical-align:top;">domain</td><td style="vertical-align:top;">:</td><td><div></div></td></tr><tr><td style="font-weight:bold;vertical-align:top;">expires</td><td style="vertical-align:top;">:</td><td><div></div></td></tr><tr><td style="font-weight:bold;vertical-align:top;">httponly</td><td style="vertical-align:top;">:</td><td><div></div></td></tr><tr><td style="font-weight:bold;vertical-align:top;">max-age</td><td style="vertical-align:top;">:</td><td><div></div></td></tr><tr><td style="font-weight:bold;vertical-align:top;">path</td><td style="vertical-align:top;">:</td><td><div></div></td></tr><tr><td style="font-weight:bold;vertical-align:top;">secure</td><td style="vertical-align:top;">:</td><td><div></div></td></tr><tr><td style="font-weight:bold;vertical-align:top;">version</td><td style="vertical-align:top;">:</td><td><div></div></td></tr></table></div></td></tr><tr><td style="font-weight:bold;vertical-align:top;">session_id_oj</td><td style="vertical-align:top;">:</td><td><div>127.0.0.1-05a76232-24d5-4a11-b5c0-98cb85c4cfaf<table><tr><td style="font-weight:bold;vertical-align:top;">comment</td><td style="vertical-align:top;">:</td><td><div></div></td></tr><tr><td style="font-weight:bold;vertical-align:top;">domain</td><td style="vertical-align:top;">:</td><td><div></div></td></tr><tr><td style="font-weight:bold;vertical-align:top;">expires</td><td style="vertical-align:top;">:</td><td><div></div></td></tr><tr><td style="font-weight:bold;vertical-align:top;">httponly</td><td style="vertical-align:top;">:</td><td><div></div></td></tr><tr><td style="font-weight:bold;vertical-align:top;">max-age</td><td style="vertical-align:top;">:</td><td><div></div></td></tr><tr><td style="font-weight:bold;vertical-align:top;">path</td><td style="vertical-align:top;">:</td><td><div></div></td></tr><tr><td style="font-weight:bold;vertical-align:top;">secure</td><td style="vertical-align:top;">:</td><td><div></div></td></tr><tr><td style="font-weight:bold;vertical-align:top;">version</td><td style="vertical-align:top;">:</td><td><div></div></td></tr></table></div></td></tr><tr><td style="font-weight:bold;vertical-align:top;">session_id_welcome</td><td style="vertical-align:top;">:</td><td><div>127.0.0.1-44f7de60-5858-4350-a4cd-8271043ad4b9<table><tr><td style="font-weight:bold;vertical-align:top;">comment</td><td style="vertical-align:top;">:</td><td><div></div></td></tr><tr><td style="font-weight:bold;vertical-align:top;">domain</td><td style="vertical-align:top;">:</td><td><div></div></td></tr><tr><td style="font-weight:bold;vertical-align:top;">expires</td><td style="vertical-align:top;">:</td><td><div></div></td></tr><tr><td style="font-weight:bold;vertical-align:top;">httponly</td><td style="vertical-align:top;">:</td><td><div></div></td></tr><tr><td style="font-weight:bold;vertical-align:top;">max-age</td><td style="vertical-align:top;">:</td><td><div></div></td></tr><tr><td style="font-weight:bold;vertical-align:top;">path</td><td style="vertical-align:top;">:</td><td><div></div></td></tr><tr><td style="font-weight:bold;vertical-align:top;">secure</td><td style="vertical-align:top;">:</td><td><div></div></td></tr><tr><td style="font-weight:bold;vertical-align:top;">version</td><td style="vertical-align:top;">:</td><td><div></div></td></tr></table></div></td></tr></table></div></td></tr><tr><td style="font-weight:bold;vertical-align:top;">env</td><td style="vertical-align:top;">:</td><td><div><table><tr><td style="font-weight:bold;vertical-align:top;">HTTP_ACCEPT</td><td style="vertical-align:top;">:</td><td><div>text/html,application/xhtml+xml,application/xml;q=0.9,*/*;q=0.8</div></td></tr><tr><td style="font-weight:bold;vertical-align:top;">HTTP_ACCEPT_ENCODING</td><td style="vertical-align:top;">:</td><td><div>gzip, deflate</div></td></tr><tr><td style="font-weight:bold;vertical-align:top;">HTTP_ACCEPT_LANGUAGE</td><td style="vertical-align:top;">:</td><td><div>en-US,en;q=0.5</div></td></tr><tr><td style="font-weight:bold;vertical-align:top;">HTTP_CACHE_CONTROL</td><td style="vertical-align:top;">:</td><td><div>max-age=0</div></td></tr><tr><td style="font-weight:bold;vertical-align:top;">HTTP_CONNECTION</td><td style="vertical-align:top;">:</td><td><div>keep-alive</div></td></tr><tr><td style="font-weight:bold;vertical-align:top;">HTTP_COOKIE</td><td style="vertical-align:top;">:</td><td><div>session_id_welcome=127.0.0.1-44f7de60-5858-4350-a4cd-8271043ad4b9; session_id_oj=127.0.0.1-05a76232-24d5-4a11-b5c0-98cb85c4cfaf; session_id_admin=127.0.0.1-3c391180-9100-434d-9379-ca9d2869cb5d</div></td></tr><tr><td style="font-weight:bold;vertical-align:top;">HTTP_HOST</td><td style="vertical-align:top;">:</td><td><div>localhost:8080</div></td></tr><tr><td style="font-weight:bold;vertical-align:top;">HTTP_REFERER</td><td style="vertical-align:top;">:</td><td><div>http://localhost:8080/oj/contest/view/1</div></td></tr><tr><td style="font-weight:bold;vertical-align:top;">HTTP_USER_AGENT</td><td style="vertical-align:top;">:</td><td><div>Mozilla/5.0 (X11; Fedora; Linux x86_64; rv:43.0) Gecko/20100101 Firefox/43.0</div></td></tr><tr><td style="font-weight:bold;vertical-align:top;">PATH_INFO</td><td style="vertical-align:top;">:</td><td><div>/oj/default/problem/1</div></td></tr><tr><td style="font-weight:bold;vertical-align:top;">QUERY_STRING</td><td style="vertical-align:top;">:</td><td><div></div></td></tr><tr><td style="font-weight:bold;vertical-align:top;">REMOTE_ADDR</td><td style="vertical-align:top;">:</td><td><div>127.0.0.1</div></td></tr><tr><td style="font-weight:bold;vertical-align:top;">REMOTE_PORT</td><td style="vertical-align:top;">:</td><td><div>58676</div></td></tr><tr><td style="font-weight:bold;vertical-align:top;">REQUEST_METHOD</td><td style="vertical-align:top;">:</td><td><div>GET</div></td></tr><tr><td style="font-weight:bold;vertical-align:top;">SCRIPT_NAME</td><td style="vertical-align:top;">:</td><td><div></div></td></tr><tr><td style="font-weight:bold;vertical-align:top;">SERVER_NAME</td><td style="vertical-align:top;">:</td><td><div>localhost.localdomain</div></td></tr><tr><td style="font-weight:bold;vertical-align:top;">SERVER_PORT</td><td style="vertical-align:top;">:</td><td><div>8080</div></td></tr><tr><td style="font-weight:bold;vertical-align:top;">SERVER_PROTOCOL</td><td style="vertical-align:top;">:</td><td><div>HTTP/1.1</div></td></tr><tr><td style="font-weight:bold;vertical-align:top;">SERVER_SOFTWARE</td><td style="vertical-align:top;">:</td><td><div>Rocket 1.2.6</div></td></tr><tr><td style="font-weight:bold;vertical-align:top;">app_folders</td><td style="vertical-align:top;">:</td><td><div>set([&#x27;/home/sourav/Documents/Project_OJ/Redefined/applications/oj/&#x27;, &#x27;/home/sourav/Documents/Project_OJ/Redefined/applications/admin/&#x27;, &#x27;/home/sourav/Documents/Project_OJ/Redefined/applications/welcome/&#x27;])</div></td></tr><tr><td style="font-weight:bold;vertical-align:top;">applications_parent</td><td style="vertical-align:top;">:</td><td><div>/home/sourav/Documents/Project_OJ/Redefined</div></td></tr><tr><td style="font-weight:bold;vertical-align:top;">cmd_args</td><td style="vertical-align:top;">:</td><td><div><table></table></div></td></tr><tr><td style="font-weight:bold;vertical-align:top;">cmd_options</td><td style="vertical-align:top;">:</td><td><div>&lt;Values at 0x7f1d01024e60: {&#x27;verbose&#x27;: False, &#x27;ip&#x27;: &#x27;127.0.0.1&#x27;, &#x27;debuglevel&#x27;: 30, &#x27;with_scheduler&#x27;: False, &#x27;ips&#x27;: [&#x27;127.0.0.1&#x27;], &#x27;shutdown_timeout&#x27;: 5, &#x27;taskbar&#x27;: False, &#x27;with_coverage&#x27;: False, &#x27;scheduler_groups&#x27;: None, &#x27;port&#x27;: 8080, &#x27;maxthreads&#x27;: None, &#x27;softcron&#x27;: False, &#x27;server_name&#x27;: &#x27;localhost.localdomain&#x27;, &#x27;bpython&#x27;: False, &#x27;nogui&#x27;: True, &#x27;pid_filename&#x27;: &#x27;httpserver.pid&#x27;, &#x27;print_errors&#x27;: False, &#x27;extcron&#x27;: False, &#x27;runcron&#x27;: False, &#x27;run_system_tests&#x27;: False, &#x27;test&#x27;: None, &#x27;folder&#x27;: &#x27;/home/sourav/Documents/Project_OJ/Redefined&#x27;, &#x27;config&#x27;: &#x27;&#x27;, &#x27;minthreads&#x27;: None, &#x27;shell&#x27;: None, &#x27;run&#x27;: &#x27;&#x27;, &#x27;log_filename&#x27;: &#x27;httpserver.log&#x27;, &#x27;profiler_dir&#x27;: None, &#x27;args&#x27;: [&#x27;&#x27;], &#x27;socket_timeout&#x27;: 5, &#x27;ssl_ca_certificate&#x27;: None, &#x27;scheduler&#x27;: None, &#x27;interfaces&#x27;: None, &#x27;ssl_private_key&#x27;: &#x27;&#x27;, &#x27;gae&#x27;: None, &#x27;password&#x27;: &#x27;a&#x27;, &#x27;request_queue_size&#x27;: 5, &#x27;ssl_certificate&#x27;: &#x27;&#x27;, &#x27;cronjob&#x27;: False, &#x27;numthreads&#x27;: None, &#x27;quiet&#x27;: False, &#x27;import_models&#x27;: False, &#x27;timeout&#x27;: 10, &#x27;plain&#x27;: False, &#x27;nobanner&#x27;: False}&gt;</div></td></tr><tr><td style="font-weight:bold;vertical-align:top;">db_sessions</td><td style="vertical-align:top;">:</td><td><div>set([])</div></td></tr><tr><td style="font-weight:bold;vertical-align:top;">debugging</td><td style="vertical-align:top;">:</td><td><div>False</div></td></tr><tr><td style="font-weight:bold;vertical-align:top;">gluon_parent</td><td style="vertical-align:top;">:</td><td><div>/home/sourav/Documents/Project_OJ/Redefined</div></td></tr><tr><td style="font-weight:bold;vertical-align:top;">http_accept</td><td style="vertical-align:top;">:</td><td><div>text/html,application/xhtml+xml,application/xml;q=0.9,*/*;q=0.8</div></td></tr><tr><td style="font-weight:bold;vertical-align:top;">http_accept_encoding</td><td style="vertical-align:top;">:</td><td><div>gzip, deflate</div></td></tr><tr><td style="font-weight:bold;vertical-align:top;">http_accept_language</td><td style="vertical-align:top;">:</td><td><div>en-US,en;q=0.5</div></td></tr><tr><td style="font-weight:bold;vertical-align:top;">http_cache_control</td><td style="vertical-align:top;">:</td><td><div>max-age=0</div></td></tr><tr><td style="font-weight:bold;vertical-align:top;">http_connection</td><td style="vertical-align:top;">:</td><td><div>keep-alive</div></td></tr><tr><td style="font-weight:bold;vertical-align:top;">http_cookie</td><td style="vertical-align:top;">:</td><td><div>session_id_welcome=127.0.0.1-44f7de60-5858-4350-a4cd-8271043ad4b9; session_id_oj=127.0.0.1-05a76232-24d5-4a11-b5c0-98cb85c4cfaf; session_id_admin=127.0.0.1-3c391180-9100-434d-9379-ca9d2869cb5d</div></td></tr><tr><td style="font-weight:bold;vertical-align:top;">http_host</td><td style="vertical-align:top;">:</td><td><div>localhost:8080</div></td></tr><tr><td style="font-weight:bold;vertical-align:top;">http_referer</td><td style="vertical-align:top;">:</td><td><div>http://localhost:8080/oj/contest/view/1</div></td></tr><tr><td style="font-weight:bold;vertical-align:top;">http_user_agent</td><td style="vertical-align:top;">:</td><td><div>Mozilla/5.0 (X11; Fedora; Linux x86_64; rv:43.0) Gecko/20100101 Firefox/43.0</div></td></tr><tr><td style="font-weight:bold;vertical-align:top;">is_jython</td><td style="vertical-align:top;">:</td><td><div>False</div></td></tr><tr><td style="font-weight:bold;vertical-align:top;">is_pypy</td><td style="vertical-align:top;">:</td><td><div>False</div></td></tr><tr><td style="font-weight:bold;vertical-align:top;">is_source</td><td style="vertical-align:top;">:</td><td><div>True</div></td></tr><tr><td style="font-weight:bold;vertical-align:top;">local_hosts</td><td style="vertical-align:top;">:</td><td><div><table><tr><td><div>::1</div></td></tr><tr><td><div>::ffff:127.0.0.1</div></td></tr><tr><td><div>127.0.0.1</div></td></tr><tr><td><div>localhost.localdomain</div></td></tr></table></div></td></tr><tr><td style="font-weight:bold;vertical-align:top;">path_info</td><td style="vertical-align:top;">:</td><td><div>/oj/default/problem/1</div></td></tr><tr><td style="font-weight:bold;vertical-align:top;">query_string</td><td style="vertical-align:top;">:</td><td><div></div></td></tr><tr><td style="font-weight:bold;vertical-align:top;">remote_addr</td><td style="vertical-align:top;">:</td><td><div>127.0.0.1</div></td></tr><tr><td style="font-weight:bold;vertical-align:top;">remote_port</td><td style="vertical-align:top;">:</td><td><div>58676</div></td></tr><tr><td style="font-weight:bold;vertical-align:top;">request_method</td><td style="vertical-align:top;">:</td><td><div>GET</div></td></tr><tr><td style="font-weight:bold;vertical-align:top;">request_uri</td><td style="vertical-align:top;">:</td><td><div>/oj/default/problem/1</div></td></tr><tr><td style="font-weight:bold;vertical-align:top;">script_name</td><td style="vertical-align:top;">:</td><td><div></div></td></tr><tr><td style="font-weight:bold;vertical-align:top;">server_name</td><td style="vertical-align:top;">:</td><td><div>localhost.localdomain</div></td></tr><tr><td style="font-weight:bold;vertical-align:top;">server_port</td><td style="vertical-align:top;">:</td><td><div>8080</div></td></tr><tr><td style="font-weight:bold;vertical-align:top;">server_protocol</td><td style="vertical-align:top;">:</td><td><div>HTTP/1.1</div></td></tr><tr><td style="font-weight:bold;vertical-align:top;">server_software</td><td style="vertical-align:top;">:</td><td><div>Rocket 1.2.6</div></td></tr><tr><td style="font-weight:bold;vertical-align:top;">web2py_path</td><td style="vertical-align:top;">:</td><td><div>/home/sourav/Documents/Project_OJ/Redefined</div></td></tr><tr><td style="font-weight:bold;vertical-align:top;">web2py_version</td><td style="vertical-align:top;">:</td><td><div>2.13.4-stable+timestamp.2015.12.26.04.59.39</div></td></tr><tr><td style="font-weight:bold;vertical-align:top;">wsgi.errors</td><td style="vertical-align:top;">:</td><td><div>&lt;open file &#x27;&lt;stderr&gt;&#x27;, mode &#x27;w&#x27; at 0x7f1d100081e0&gt;</div></td></tr><tr><td style="font-weight:bold;vertical-align:top;">wsgi.file_wrapper</td><td style="vertical-align:top;">:</td><td><div>&lt;class wsgiref.util.FileWrapper at 0x7f1d0104e530&gt;</div></td></tr><tr><td style="font-weight:bold;vertical-align:top;">wsgi.input</td><td style="vertical-align:top;">:</td><td><div>&lt;socket._fileobject object at 0x7f1ccbc1e4d0&gt;</div></td></tr><tr><td style="font-weight:bold;vertical-align:top;">wsgi.multiprocess</td><td style="vertical-align:top;">:</td><td><div>False</div></td></tr><tr><td style="font-weight:bold;vertical-align:top;">wsgi.multithread</td><td style="vertical-align:top;">:</td><td><div>True</div></td></tr><tr><td style="font-weight:bold;vertical-align:top;">wsgi.run_once</td><td style="vertical-align:top;">:</td><td><div>False</div></td></tr><tr><td style="font-weight:bold;vertical-align:top;">wsgi.url_scheme</td><td style="vertical-align:top;">:</td><td><div>http</div></td></tr><tr><td style="font-weight:bold;vertical-align:top;">wsgi.version</td><td style="vertical-align:top;">:</td><td><div><table><tr><td><div>1</div></td></tr><tr><td><div>0</div></td></tr></table></div></td></tr><tr><td style="font-weight:bold;vertical-align:top;">wsgi_errors</td><td style="vertical-align:top;">:</td><td><div>&lt;open file &#x27;&lt;stderr&gt;&#x27;, mode &#x27;w&#x27; at 0x7f1d100081e0&gt;</div></td></tr><tr><td style="font-weight:bold;vertical-align:top;">wsgi_file_wrapper</td><td style="vertical-align:top;">:</td><td><div>&lt;class wsgiref.util.FileWrapper at 0x7f1d0104e530&gt;</div></td></tr><tr><td style="font-weight:bold;vertical-align:top;">wsgi_input</td><td style="vertical-align:top;">:</td><td><div>&lt;socket._fileobject object at 0x7f1ccbc1e4d0&gt;</div></td></tr><tr><td style="font-weight:bold;vertical-align:top;">wsgi_multiprocess</td><td style="vertical-align:top;">:</td><td><div>False</div></td></tr><tr><td style="font-weight:bold;vertical-align:top;">wsgi_multithread</td><td style="vertical-align:top;">:</td><td><div>True</div></td></tr><tr><td style="font-weight:bold;vertical-align:top;">wsgi_run_once</td><td style="vertical-align:top;">:</td><td><div>False</div></td></tr><tr><td style="font-weight:bold;vertical-align:top;">wsgi_url_scheme</td><td style="vertical-align:top;">:</td><td><div>http</div></td></tr><tr><td style="font-weight:bold;vertical-align:top;">wsgi_version</td><td style="vertical-align:top;">:</td><td><div><table><tr><td><div>1</div></td></tr><tr><td><div>0</div></td></tr></table></div></td></tr></table></div></td></tr><tr><td style="font-weight:bold;vertical-align:top;">extension</td><td style="vertical-align:top;">:</td><td><div>html</div></td></tr><tr><td style="font-weight:bold;vertical-align:top;">folder</td><td style="vertical-align:top;">:</td><td><div>/home/sourav/Documents/Project_OJ/Redefined/applications/oj/</div></td></tr><tr><td style="font-weight:bold;vertical-align:top;">function</td><td style="vertical-align:top;">:</td><td><div>problem</div></td></tr><tr><td style="font-weight:bold;vertical-align:top;">global_settings</td><td style="vertical-align:top;">:</td><td><div><table><tr><td style="font-weight:bold;vertical-align:top;">app_folders</td><td style="vertical-align:top;">:</td><td><div>set([&#x27;/home/sourav/Documents/Project_OJ/Redefined/applications/oj/&#x27;, &#x27;/home/sourav/Documents/Project_OJ/Redefined/applications/admin/&#x27;, &#x27;/home/sourav/Documents/Project_OJ/Redefined/applications/welcome/&#x27;])</div></td></tr><tr><td style="font-weight:bold;vertical-align:top;">applications_parent</td><td style="vertical-align:top;">:</td><td><div>/home/sourav/Documents/Project_OJ/Redefined</div></td></tr><tr><td style="font-weight:bold;vertical-align:top;">cmd_args</td><td style="vertical-align:top;">:</td><td><div><table></table></div></td></tr><tr><td style="font-weight:bold;vertical-align:top;">cmd_options</td><td style="vertical-align:top;">:</td><td><div>&lt;Values at 0x7f1d01024e60: {&#x27;verbose&#x27;: False, &#x27;ip&#x27;: &#x27;127.0.0.1&#x27;, &#x27;debuglevel&#x27;: 30, &#x27;with_scheduler&#x27;: False, &#x27;ips&#x27;: [&#x27;127.0.0.1&#x27;], &#x27;shutdown_timeout&#x27;: 5, &#x27;taskbar&#x27;: False, &#x27;with_coverage&#x27;: False, &#x27;scheduler_groups&#x27;: None, &#x27;port&#x27;: 8080, &#x27;maxthreads&#x27;: None, &#x27;softcron&#x27;: False, &#x27;server_name&#x27;: &#x27;localhost.localdomain&#x27;, &#x27;bpython&#x27;: False, &#x27;nogui&#x27;: True, &#x27;pid_filename&#x27;: &#x27;httpserver.pid&#x27;, &#x27;print_errors&#x27;: False, &#x27;extcron&#x27;: False, &#x27;runcron&#x27;: False, &#x27;run_system_tests&#x27;: False, &#x27;test&#x27;: None, &#x27;folder&#x27;: &#x27;/home/sourav/Documents/Project_OJ/Redefined&#x27;, &#x27;config&#x27;: &#x27;&#x27;, &#x27;minthreads&#x27;: None, &#x27;shell&#x27;: None, &#x27;run&#x27;: &#x27;&#x27;, &#x27;log_filename&#x27;: &#x27;httpserver.log&#x27;, &#x27;profiler_dir&#x27;: None, &#x27;args&#x27;: [&#x27;&#x27;], &#x27;socket_timeout&#x27;: 5, &#x27;ssl_ca_certificate&#x27;: None, &#x27;scheduler&#x27;: None, &#x27;interfaces&#x27;: None, &#x27;ssl_private_key&#x27;: &#x27;&#x27;, &#x27;gae&#x27;: None, &#x27;password&#x27;: &#x27;a&#x27;, &#x27;request_queue_size&#x27;: 5, &#x27;ssl_certificate&#x27;: &#x27;&#x27;, &#x27;cronjob&#x27;: False, &#x27;numthreads&#x27;: None, &#x27;quiet&#x27;: False, &#x27;import_models&#x27;: False, &#x27;timeout&#x27;: 10, &#x27;plain&#x27;: False, &#x27;nobanner&#x27;: False}&gt;</div></td></tr><tr><td style="font-weight:bold;vertical-align:top;">db_sessions</td><td style="vertical-align:top;">:</td><td><div>set([])</div></td></tr><tr><td style="font-weight:bold;vertical-align:top;">debugging</td><td style="vertical-align:top;">:</td><td><div>False</div></td></tr><tr><td style="font-weight:bold;vertical-align:top;">gluon_parent</td><td style="vertical-align:top;">:</td><td><div>/home/sourav/Documents/Project_OJ/Redefined</div></td></tr><tr><td style="font-weight:bold;vertical-align:top;">is_jython</td><td style="vertical-align:top;">:</td><td><div>False</div></td></tr><tr><td style="font-weight:bold;vertical-align:top;">is_pypy</td><td style="vertical-align:top;">:</td><td><div>False</div></td></tr><tr><td style="font-weight:bold;vertical-align:top;">is_source</td><td style="vertical-align:top;">:</td><td><div>True</div></td></tr><tr><td style="font-weight:bold;vertical-align:top;">local_hosts</td><td style="vertical-align:top;">:</td><td><div><table><tr><td><div>::1</div></td></tr><tr><td><div>::ffff:127.0.0.1</div></td></tr><tr><td><div>127.0.0.1</div></td></tr><tr><td><div>localhost.localdomain</div></td></tr></table></div></td></tr><tr><td style="font-weight:bold;vertical-align:top;">web2py_version</td><td style="vertical-align:top;">:</td><td><div>2.13.4-stable+timestamp.2015.12.26.04.59.39</div></td></tr></table></div></td></tr><tr><td style="font-weight:bold;vertical-align:top;">is_https</td><td style="vertical-align:top;">:</td><td><div>False</div></td></tr><tr><td style="font-weight:bold;vertical-align:top;">is_local</td><td style="vertical-align:top;">:</td><td><div>True</div></td></tr><tr><td style="font-weight:bold;vertical-align:top;">is_restful</td><td style="vertical-align:top;">:</td><td><div>False</div></td></tr><tr><td style="font-weight:bold;vertical-align:top;">is_scheduler</td><td style="vertical-align:top;">:</td><td><div>False</div></td></tr><tr><td style="font-weight:bold;vertical-align:top;">is_shell</td><td style="vertical-align:top;">:</td><td><div>False</div></td></tr><tr><td style="font-weight:bold;vertical-align:top;">now</td><td style="vertical-align:top;">:</td><td><div>datetime.datetime(2016, 5, 3, 5, 20, 25, 468968)</div></td></tr><tr><td style="font-weight:bold;vertical-align:top;">raw_args</td><td style="vertical-align:top;">:</td><td><div>1</div></td></tr><tr><td style="font-weight:bold;vertical-align:top;">raw_extension</td><td style="vertical-align:top;">:</td><td><div>None</div></td></tr><tr><td style="font-weight:bold;vertical-align:top;">url</td><td style="vertical-align:top;">:</td><td><div>/oj/default/problem/1</div></td></tr><tr><td style="font-weight:bold;vertical-align:top;">utcnow</td><td style="vertical-align:top;">:</td><td><div>datetime.datetime(2016, 5, 2, 23, 50, 25, 469024)</div></td></tr><tr><td style="font-weight:bold;vertical-align:top;">wsgi</td><td style="vertical-align:top;">:</td><td><div>&lt;gluon.main.LazyWSGI object at 0x7f1ccbf552d0&gt;</div></td></tr></table></div>'
tRp58
sS'frames'
p59
(lp60
(dp61
S'file'
p62
S'/home/sourav/Documents/Project_OJ/Redefined/gluon/restricted.py'
p63
sS'dump'
p64
(dp65
S'environment'
p66
S"{'A': <class 'gluon.html.A'>, 'ANY_OF': <class 'gluon.validators.ANY_OF'>, 'ASSIGNJS': <function ASSIGNJS>, 'Auth': <class 'gluon.tools.Auth'>, 'B': <class 'gluon.html.B'>, 'BEAUTIFY': <class 'gluon.html.BEAUTIFY'>, 'BODY': <class 'gluon.html.BODY'>, 'BR': <class 'gluon.html.BR'>, 'BUTTON': <class 'gluon.html.BUTTON'>, 'CAT': <class 'gluon.html.CAT'>, ...}"
p67
sS'ccode'
p68
S'<code object <module> at 0x7f1ccbc15230, file "/...lications/oj/views/default/problem.html", line 1>'
p69
ssS'lnum'
p70
I227
sS'lines'
p71
(dp72
I224
S'            ccode = code'
p73
sI225
S'        else:'
p74
sI226
S'            ccode = compile2(code, layer)'
p75
sI227
S'        exec ccode in environment'
p76
sI228
S'    except HTTP:'
p77
sI229
S'        raise'
p78
sI230
S'    except RestrictedError:'
p79
sI231
S'        # do not encapsulate (obfuscate) the original RestrictedError'
p80
sI222
S'    try:'
p81
sI223
S'        if isinstance(code, types.CodeType):'
p82
ssS'call'
p83
S'(code=r"response.write(\'<!DOCTYPE html>\\n<!--[if (gt IE ...script> -->\\n  </body>\\n</html>\\n\', escape=False)", environment={\'A\': <class \'gluon.html.A\'>, \'ANY_OF\': <class \'gluon.validators.ANY_OF\'>, \'ASSIGNJS\': <function ASSIGNJS>, \'Auth\': <class \'gluon.tools.Auth\'>, \'B\': <class \'gluon.html.B\'>, \'BEAUTIFY\': <class \'gluon.html.BEAUTIFY\'>, \'BODY\': <class \'gluon.html.BODY\'>, \'BR\': <class \'gluon.html.BR\'>, \'BUTTON\': <class \'gluon.html.BUTTON\'>, \'CAT\': <class \'gluon.html.CAT\'>, ...}, layer=\'/home/sourav/Documents/Project_OJ/Redefined/applications/oj/views/default/problem.html\')'
p84
sS'func'
p85
S'restricted'
p86
sa(dp87
g62
S'/home/sourav/Documents/Project_OJ/Redefined/applications/oj/views/default/problem.html'
p88
sg64
(dp89
S'div'
p90
S'undefined'
p91
ssg70
I75
sg71
(dp92
I66
S'response.write(\'">Compete</a></li>\\n                <li><a href="\', escape=False)'
p93
sI67
S"response.write(URL('problemset','problemset'))"
p94
sI68
S'response.write(\'">Practice</a></li>\\n              </ul> -->\\n            </div>\\n          </nav>\\n      </div>\\n    <!-- </nav> -->\\n    <!-- Masthead ===================================== -->\\n    \', escape=False)'
p95
sI69
S"response.write('\\n    ', escape=False)"
p96
sI70
S'response.write(\'\\n    <!-- Main ========================================= -->\\n    <!-- Begin page content -->\\n    <div class="container-fluid main-container">\\n        \', escape=False)'
p97
sI71
S"response.write('\\n        ', escape=False)"
p98
sI72
S'response.write(\'\\n<link rel="stylesheet" href="\', escape=False)'
p99
sI73
S"response.write(URL('static','css/anjan.css'))"
p100
sI74
S'response.write(\'">\\n<script type="text/javascript">\\n$(document).ready(function() {\\n  document.getElementById("changestars1").style.width=Math.max(0, (Math.min(5, \', escape=False)'
p101
sI75
S'response.write(((float)(problems.think)/2))'
p102
sI76
S'response.write(\')))*16+"px";\\n});\\n$(document).ready(function() {\\n  document.getElementById("changestars2").style.width=Math.max(0, (Math.min(5, \', escape=False)'
p103
sI77
S'response.write(((float)(problems.code)/2.0))'
p104
sI78
S'response.write(\')))*16+"px";\\n});\\n</script>\\n\\n\\n<div class="row innerheadercontainer">\\n\\n  <div class="col-md-12 innerheader">\\n\\n    <div class="row">\\n      <div class="col-md-5">\\n        <div class="row pagepath">\\n          <div class="col-md-12">\\n            <a href="">Contests </a>>> <a href="">Problems</a> >> \', escape=False)'
p105
sI79
S'response.write(problems.name)'
p106
sI80
S'response.write(\'\\n          </div>\\n        </div>\\n        <div class="row pagetitle">\\n          <div class="col-md-12">\\n            <h3>\', escape=False)'
p107
sI81
S'response.write(problems.name)'
p108
sI82
S'response.write(\'</h3>\\n          </div>\\n        </div>\\n\\n      </div>\\n\\n      <div class="col-md-7">\\n        <div id=\\\'cssmenu\\\'>\\n          <ul>\\n            <li class="active"><a href=\\\'\', escape=False)'
p109
sI83
S"response.write(URL('contest','view',args=problems.contest_id))"
p110
sI84
S'response.write("\'>PROBLEMS</a></li>\\n            ", escape=False)'
p111
sI85
S'if auth.is_logged_in():'
p112
ssg83
S'()'
p113
sg85
S'<module>'
p114
sasS'pyver'
p115
S'Python 2.7.10: /usr/bin/python (prefix: /usr)'
p116
sS'session'
p117
g57
(S'ss\t\x00\x00<div><table><tr><td style="font-weight:bold;vertical-align:top;">auth</td><td style="vertical-align:top;">:</td><td><div><table><tr><td style="font-weight:bold;vertical-align:top;">expiration</td><td style="vertical-align:top;">:</td><td><div>3600</div></td></tr><tr><td style="font-weight:bold;vertical-align:top;">hmac_key</td><td style="vertical-align:top;">:</td><td><div>aa0ffd3b-6817-497c-a8de-3b714207719a</div></td></tr><tr><td style="font-weight:bold;vertical-align:top;">last_visit</td><td style="vertical-align:top;">:</td><td><div>datetime.datetime(2016, 5, 3, 5, 17, 27, 395839)</div></td></tr><tr><td style="font-weight:bold;vertical-align:top;">remember_me</td><td style="vertical-align:top;">:</td><td><div>False</div></td></tr><tr><td style="font-weight:bold;vertical-align:top;">user</td><td style="vertical-align:top;">:</td><td><div><table><tr><td style="font-weight:bold;vertical-align:top;">email</td><td style="vertical-align:top;">:</td><td><div>souravgl0@gmail.com</div></td></tr><tr><td style="font-weight:bold;vertical-align:top;">first_name</td><td style="vertical-align:top;">:</td><td><div>Sourav</div></td></tr><tr><td style="font-weight:bold;vertical-align:top;">id</td><td style="vertical-align:top;">:</td><td><div>1L</div></td></tr><tr><td style="font-weight:bold;vertical-align:top;">last_name</td><td style="vertical-align:top;">:</td><td><div>Goyal</div></td></tr><tr><td style="font-weight:bold;vertical-align:top;">registration_id</td><td style="vertical-align:top;">:</td><td><div></div></td></tr><tr><td style="font-weight:bold;vertical-align:top;">registration_key</td><td style="vertical-align:top;">:</td><td><div></div></td></tr><tr><td style="font-weight:bold;vertical-align:top;">reset_password_key</td><td style="vertical-align:top;">:</td><td><div></div></td></tr><tr><td style="font-weight:bold;vertical-align:top;">username</td><td style="vertical-align:top;">:</td><td><div>souravgl0</div></td></tr></table></div></td></tr><tr><td style="font-weight:bold;vertical-align:top;">user_groups</td><td style="vertical-align:top;">:</td><td><div><table><tr><td style="font-weight:bold;vertical-align:top;">1</td><td style="vertical-align:top;">:</td><td><div>user_1</div></td></tr></table></div></td></tr></table></div></td></tr><tr><td style="font-weight:bold;vertical-align:top;">flash</td><td style="vertical-align:top;">:</td><td><div>None</div></td></tr></table></div>'
tRp118
sS'etype'
p119
S"<type 'exceptions.AttributeError'>"
p120
sS'date'
p121
S'Tue May  3 05:20:25 2016'
p122
sS'response'
p123
g57
(S's\xc5#\x00\x00<div><table><tr><td style="font-weight:bold;vertical-align:top;">body</td><td style="vertical-align:top;">:</td><td><div>&lt;cStringIO.StringO object at 0x7f1cf80e87d8&gt;</div></td></tr><tr><td style="font-weight:bold;vertical-align:top;">cookies</td><td style="vertical-align:top;">:</td><td><div><table><tr><td style="font-weight:bold;vertical-align:top;">session_id_oj</td><td style="vertical-align:top;">:</td><td><div>127.0.0.1-05a76232-24d5-4a11-b5c0-98cb85c4cfaf<table><tr><td style="font-weight:bold;vertical-align:top;">comment</td><td style="vertical-align:top;">:</td><td><div></div></td></tr><tr><td style="font-weight:bold;vertical-align:top;">domain</td><td style="vertical-align:top;">:</td><td><div></div></td></tr><tr><td style="font-weight:bold;vertical-align:top;">expires</td><td style="vertical-align:top;">:</td><td><div></div></td></tr><tr><td style="font-weight:bold;vertical-align:top;">httponly</td><td style="vertical-align:top;">:</td><td><div></div></td></tr><tr><td style="font-weight:bold;vertical-align:top;">max-age</td><td style="vertical-align:top;">:</td><td><div></div></td></tr><tr><td style="font-weight:bold;vertical-align:top;">path</td><td style="vertical-align:top;">:</td><td><div>/</div></td></tr><tr><td style="font-weight:bold;vertical-align:top;">secure</td><td style="vertical-align:top;">:</td><td><div></div></td></tr><tr><td style="font-weight:bold;vertical-align:top;">version</td><td style="vertical-align:top;">:</td><td><div></div></td></tr></table></div></td></tr></table></div></td></tr><tr><td style="font-weight:bold;vertical-align:top;">delimiters</td><td style="vertical-align:top;">:</td><td><div><table><tr><td><div>{{</div></td></tr><tr><td><div>}}</div></td></tr></table></div></td></tr><tr><td style="font-weight:bold;vertical-align:top;">files</td><td style="vertical-align:top;">:</td><td><div><table><tr><td><div>/oj/static/js/jquery.js</div></td></tr><tr><td><div>/oj/static/css/calendar.css</div></td></tr><tr><td><div>/oj/static/js/calendar.js</div></td></tr><tr><td><div>/oj/static/js/web2py.js</div></td></tr></table></div></td></tr><tr><td style="font-weight:bold;vertical-align:top;">flash</td><td style="vertical-align:top;">:</td><td><div></div></td></tr><tr><td style="font-weight:bold;vertical-align:top;">form_label_separator</td><td style="vertical-align:top;">:</td><td><div>: </div></td></tr><tr><td style="font-weight:bold;vertical-align:top;">formstyle</td><td style="vertical-align:top;">:</td><td><div>table3cols</div></td></tr><tr><td style="font-weight:bold;vertical-align:top;">generic_patterns</td><td style="vertical-align:top;">:</td><td><div><table><tr><td><div>*</div></td></tr></table></div></td></tr><tr><td style="font-weight:bold;vertical-align:top;">headers</td><td style="vertical-align:top;">:</td><td><div><table><tr><td style="font-weight:bold;vertical-align:top;">X-Powered-By</td><td style="vertical-align:top;">:</td><td><div>web2py</div></td></tr></table></div></td></tr><tr><td style="font-weight:bold;vertical-align:top;">logo</td><td style="vertical-align:top;">:</td><td><div><a class="navbar-brand" href="/oj/default/index" id="web2py-logo"><b>OJ</b></a></div></td></tr><tr><td style="font-weight:bold;vertical-align:top;">menu</td><td style="vertical-align:top;">:</td><td><div><table><tr><td><div><table><tr><td><div>Home</div></td></tr><tr><td><div>False</div></td></tr><tr><td><div>/oj/default/index</div></td></tr><tr><td><div><table></table></div></td></tr></table></div></td></tr><tr><td><div><table><tr><td><div>Practice</div></td></tr><tr><td><div>False</div></td></tr><tr><td><div>/oj/problemset/problemset</div></td></tr><tr><td><div><table><tr><td><div><table><tr><td><div>Easy</div></td></tr><tr><td><div>False</div></td></tr><tr><td><div>/oj/problemset/problemset?difficulty=easy</div></td></tr></table></div></td></tr><tr><td><div><table><tr><td><div>Medium</div></td></tr><tr><td><div>False</div></td></tr><tr><td><div>/oj/problemset/problemset?difficulty=medium</div></td></tr></table></div></td></tr><tr><td><div><table><tr><td><div>Hard</div></td></tr><tr><td><div>False</div></td></tr><tr><td><div>/oj/problemset/problemset?difficulty=hard</div></td></tr></table></div></td></tr></table></div></td></tr></table></div></td></tr><tr><td><div><table><tr><td><div>Compete</div></td></tr><tr><td><div>False</div></td></tr><tr><td><div>/oj/contest/all</div></td></tr></table></div></td></tr><tr><td><div><table><tr><td><div>Discuss</div></td></tr><tr><td><div>False</div></td></tr><tr><td><div>/oj/discuss/discuss_main</div></td></tr></table></div></td></tr><tr><td><div><table><tr><td><div>Admin</div></td></tr><tr><td><div>False</div></td></tr><tr><td><div>/oj/default/problem</div></td></tr><tr><td><div><table><tr><td><div><table><tr><td><div>My Contests</div></td></tr><tr><td><div>False</div></td></tr><tr><td><div>/oj/admin/user_contests</div></td></tr></table></div></td></tr><tr><td><div><table><tr><td><div>New Contest</div></td></tr><tr><td><div>False</div></td></tr><tr><td><div>/oj/admin/new_contest</div></td></tr></table></div></td></tr></table></div></td></tr></table></div></td></tr></table></div></td></tr><tr><td style="font-weight:bold;vertical-align:top;">meta</td><td style="vertical-align:top;">:</td><td><div><table><tr><td style="font-weight:bold;vertical-align:top;">author</td><td style="vertical-align:top;">:</td><td><div>Sourav Goyal</div></td></tr><tr><td style="font-weight:bold;vertical-align:top;">description</td><td style="vertical-align:top;">:</td><td><div>Online Judge for Competitive Programming</div></td></tr><tr><td style="font-weight:bold;vertical-align:top;">keywords</td><td style="vertical-align:top;">:</td><td><div>C,C++,Java,Competitive,Programming,OJ</div></td></tr></table></div></td></tr><tr><td style="font-weight:bold;vertical-align:top;">models_to_run</td><td style="vertical-align:top;">:</td><td><div><table><tr><td><div>^\\w+\\.py$</div></td></tr><tr><td><div>^default/\\w+\\.py$</div></td></tr><tr><td><div>^default/problem/\\w+\\.py$</div></td></tr></table></div></td></tr><tr><td style="font-weight:bold;vertical-align:top;">postprocessing</td><td style="vertical-align:top;">:</td><td><div><table></table></div></td></tr><tr><td style="font-weight:bold;vertical-align:top;">session_client</td><td style="vertical-align:top;">:</td><td><div>127.0.0.1</div></td></tr><tr><td style="font-weight:bold;vertical-align:top;">session_cookie_compression_level</td><td style="vertical-align:top;">:</td><td><div>None</div></td></tr><tr><td style="font-weight:bold;vertical-align:top;">session_cookie_expires</td><td style="vertical-align:top;">:</td><td><div>None</div></td></tr><tr><td style="font-weight:bold;vertical-align:top;">session_cookie_key</td><td style="vertical-align:top;">:</td><td><div>None</div></td></tr><tr><td style="font-weight:bold;vertical-align:top;">session_data_name</td><td style="vertical-align:top;">:</td><td><div>session_data_oj</div></td></tr><tr><td style="font-weight:bold;vertical-align:top;">session_file</td><td style="vertical-align:top;">:</td><td><div>&lt;open file &#x27;/home/sourav/Documents/Project_OJ/Redefined/applications/oj/sessions/024/112/127.0.0.1-05a76232-24d5-4a11-b5c0-98cb85c4cfaf&#x27;, mode &#x27;rb+&#x27; at 0x7f1cf87e5b70&gt;</div></td></tr><tr><td style="font-weight:bold;vertical-align:top;">session_filename</td><td style="vertical-align:top;">:</td><td><div>/home/sourav/Documents/Project_OJ/Redefined/applications/oj/sessions/127.0.0.1-05a76232-24d5-4a11-b5c0-98cb85c4cfaf</div></td></tr><tr><td style="font-weight:bold;vertical-align:top;">session_hash</td><td style="vertical-align:top;">:</td><td><div>0a158255f04bb31b8d315c9ec7dd6b69</div></td></tr><tr><td style="font-weight:bold;vertical-align:top;">session_id</td><td style="vertical-align:top;">:</td><td><div>127.0.0.1-05a76232-24d5-4a11-b5c0-98cb85c4cfaf</div></td></tr><tr><td style="font-weight:bold;vertical-align:top;">session_id_name</td><td style="vertical-align:top;">:</td><td><div>session_id_oj</div></td></tr><tr><td style="font-weight:bold;vertical-align:top;">session_locked</td><td style="vertical-align:top;">:</td><td><div>True</div></td></tr><tr><td style="font-weight:bold;vertical-align:top;">session_masterapp</td><td style="vertical-align:top;">:</td><td><div>oj</div></td></tr><tr><td style="font-weight:bold;vertical-align:top;">session_new</td><td style="vertical-align:top;">:</td><td><div>False</div></td></tr><tr><td style="font-weight:bold;vertical-align:top;">session_storage_type</td><td style="vertical-align:top;">:</td><td><div>file</div></td></tr><tr><td style="font-weight:bold;vertical-align:top;">status</td><td style="vertical-align:top;">:</td><td><div>200</div></td></tr><tr><td style="font-weight:bold;vertical-align:top;">subtitle</td><td style="vertical-align:top;">:</td><td><div>Learn Competitive programming</div></td></tr><tr><td style="font-weight:bold;vertical-align:top;">title</td><td style="vertical-align:top;">:</td><td><div>OJ</div></td></tr><tr><td style="font-weight:bold;vertical-align:top;">view</td><td style="vertical-align:top;">:</td><td><div>default/problem.html</div></td></tr></table></div>'
tRp124
sS'locals'
p125
(dp126
S'Service'
p127
S"<class 'gluon.tools.Service'>"
p128
sS'OBJECT'
p129
S"<class 'gluon.html.OBJECT'>"
p130
sS'datetime'
p131
S"<module 'datetime' from '/usr/lib64/python2.7/lib-dynload/datetime.so'>"
p132
sg117
S"<Storage {'_formkey[contests/1]': ['48025df7-d7b...gin]': ['3eb357b4-4c66-48be-a813-38d506051f8e']}>"
p133
sS'LINK'
p134
S"<class 'gluon.html.LINK'>"
p135
sS'BR'
p136
S"<class 'gluon.html.BR'>"
p137
sS'local_import'
p138
S'<function <lambda>>'
p139
sS'OPTGROUP'
p140
S"<class 'gluon.html.OPTGROUP'>"
p141
sS'__package__'
p142
S'None'
p143
sS'PRE'
p144
S"<class 'gluon.html.PRE'>"
p145
sS'IS_INT_IN_RANGE'
p146
S"<class 'gluon.validators.IS_INT_IN_RANGE'>"
p147
sS'left_sidebar_enabled'
p148
S'False'
p149
sS'IS_LOWER'
p150
S"<class 'gluon.validators.IS_LOWER'>"
p151
sS'IS_STRONG'
p152
S"<class 'gluon.validators.IS_STRONG'>"
p153
sS'Recaptcha'
p154
S"<class 'gluon.tools.Recaptcha'>"
p155
sS'cache'
p156
S'<gluon.cache.Cache object>'
p157
sS'IS_IN_DB'
p158
S"<class 'gluon.validators.IS_IN_DB'>"
p159
sS'TAG'
p160
S'<gluon.html.__TAG__ object>'
p161
sS'Scheduler'
p162
S"<class 'gluon.scheduler.Scheduler'>"
p163
sS'SQLField'
p164
S"<class 'pydal.objects.Field'>"
p165
sS'BODY'
p166
S"<class 'gluon.html.BODY'>"
p167
sS'IS_DATE_IN_RANGE'
p168
S"<class 'gluon.validators.IS_DATE_IN_RANGE'>"
p169
sS'IFRAME'
p170
S"<class 'gluon.html.IFRAME'>"
p171
sS'URL'
p172
S'<function URL>'
p173
sS'__file__'
p174
S"'/home/sourav/Documents/Project_OJ/Redefined/applications/oj/views/default/problem.html'"
p175
sS'db'
p176
S'<DAL uri="sqlite://storage.sqlite">'
p177
sS'auth'
p178
S'<gluon.tools.Auth object>'
p179
sS'P'
S"<class 'gluon.html.P'>"
p180
sS'TFOOT'
p181
S"<class 'gluon.html.TFOOT'>"
p182
sS'scheduler'
p183
S'<Scheduler(Thread-520, initial daemon)>'
p184
sS'XHTML'
p185
S"<class 'gluon.html.XHTML'>"
p186
sS'db2'
p187
S'<DAL uri="sqlite://scheduler.sqlite">'
p188
sS'ON'
p189
S'True'
p190
sS'OL'
p191
S"<class 'gluon.html.OL'>"
p192
sS'TEXTAREA'
p193
S"<class 'gluon.html.TEXTAREA'>"
p194
sS'MENU'
p195
S"<class 'gluon.html.MENU'>"
p196
sS'threading'
p197
S"<module 'threading' from '/usr/lib64/python2.7/threading.pyc'>"
p198
sS'run_code'
p199
S'<function run_code>'
p200
sS'IS_IMAGE'
p201
S"<class 'gluon.validators.IS_IMAGE'>"
p202
sS'reverse_geocode'
p203
S'<function reverse_geocode>'
p204
sS'EM'
p205
S"<class 'gluon.html.EM'>"
p206
sS'CODE'
p207
S"<class 'gluon.html.CODE'>"
p208
sS'HTTP'
p209
S"<class 'gluon.http.HTTP'>"
p210
sS'HR'
p211
S"<class 'gluon.html.HR'>"
p212
sS'IS_DATETIME'
p213
S"<class 'gluon.validators.IS_DATETIME'>"
p214
sS'STYLE'
p215
S"<class 'gluon.html.STYLE'>"
p216
sS'LABEL'
p217
S"<class 'gluon.html.LABEL'>"
p218
sS'CLEANUP'
p219
S"<class 'gluon.validators.CLEANUP'>"
p220
sS'TIME_FACTOR'
p221
S'[1, 1, 2]'
p222
sS'SELECT'
p223
S"<class 'gluon.html.SELECT'>"
p224
sS'CENTER'
p225
S"<class 'gluon.html.CENTER'>"
p226
sS'prettydate'
p227
S'<function prettydate>'
p228
sS'Crud'
p229
S"<class 'gluon.tools.Crud'>"
p230
sS'Auth'
p231
S"<class 'gluon.tools.Auth'>"
p232
sS'COL'
p233
S"<class 'gluon.html.COL'>"
p234
sS'__builtins__'
p235
S"{'ArithmeticError': <type 'exceptions.ArithmeticError'>, 'AssertionError': <type 'exceptions.AssertionError'>, 'AttributeError': <type 'exceptions.AttributeError'>, 'BaseException': <type 'exceptions.BaseException'>, 'BufferError': <type 'exceptions.BufferError'>, 'BytesWarning': <type 'exceptions.BytesWarning'>, 'DeprecationWarning': <type 'exceptions.DeprecationWarning'>, 'EOFError': <type 'exceptions.EOFError'>, 'Ellipsis': Ellipsis, 'EnvironmentError': <type 'exceptions.EnvironmentError'>, ...}"
p236
sS'HTML'
p237
S"<class 'gluon.html.HTML'>"
p238
sS'SQLFORM'
p239
S"<class 'gluon.sqlhtml.SQLFORM'>"
p240
sS'LOAD'
p241
S'<function LOAD>'
p242
sS'redirect'
p243
S'<function redirect>'
p244
sS'FIELDSET'
p245
S"<class 'gluon.html.FIELDSET'>"
p246
sS'IS_EQUAL_TO'
p247
S"<class 'gluon.validators.IS_EQUAL_TO'>"
p248
sS'Popen'
p249
S"<class 'subprocess.Popen'>"
p250
sS'LANG_EXT'
p251
S"['cpp', 'c', 'java']"
p252
sS'embed64'
p253
S'<function embed64>'
p254
sS'IS_LIST_OF'
p255
S"<class 'gluon.validators.IS_LIST_OF'>"
p256
sS'__name__'
p257
S"'__restricted__'"
p258
sS'EMBED'
p259
S"<class 'gluon.html.EMBED'>"
p260
sS'_'
S'<function _>'
p261
sS'H2'
p262
S"<class 'gluon.html.H2'>"
p263
sS'H3'
p264
S"<class 'gluon.html.H3'>"
p265
sS'BUTTON'
p266
S"<class 'gluon.html.BUTTON'>"
p267
sS'H1'
p268
S"<class 'gluon.html.H1'>"
p269
sS'H6'
p270
S"<class 'gluon.html.H6'>"
p271
sS'H4'
p272
S"<class 'gluon.html.H4'>"
p273
sS'H5'
p274
S"<class 'gluon.html.H5'>"
p275
sS'UL'
p276
S"<class 'gluon.html.UL'>"
p277
sS'IS_UPPER'
p278
S"<class 'gluon.validators.IS_UPPER'>"
p279
sS'xmlescape'
p280
S'<function xmlescape>'
p281
sS'IS_TIME'
p282
S"<class 'gluon.validators.IS_TIME'>"
p283
sS'os'
p284
S"<module 'os' from '/usr/lib64/python2.7/os.pyc'>"
p285
sS'OPTION'
p286
S"<class 'gluon.html.OPTION'>"
p287
sS'TITLE'
p288
S"<class 'gluon.html.TITLE'>"
p289
sS'CRYPT'
p290
S"<class 'gluon.validators.CRYPT'>"
p291
sS'IS_EMPTY_OR'
p292
S"<class 'gluon.validators.IS_EMPTY_OR'>"
p293
sS'MARKMIN'
p294
S"<class 'gluon.html.MARKMIN'>"
p295
sS'Recaptcha2'
p296
S"<class 'gluon.tools.Recaptcha2'>"
p297
sS'INPUT'
p298
S"<class 'gluon.html.INPUT'>"
p299
sS'STRONG'
p300
S"<class 'gluon.html.STRONG'>"
p301
sS'mc2'
p302
S"'col-md-6'"
p303
sS'mc1'
p304
S"'col-md-9'"
p305
sS'mc0'
p306
S"'col-md-12'"
p307
sS'SCRIPT'
p308
S"<class 'gluon.html.SCRIPT'>"
p309
sS'STDOUT'
p310
S'-2'
p311
sS'PIPE'
p312
S'-1'
p313
sS'geocode'
p314
S'<function geocode>'
p315
sg83
S'<function call>'
p316
sS'TABLE'
p317
S"<class 'gluon.html.TABLE'>"
p318
sS'IS_IPV4'
p319
S"<class 'gluon.validators.IS_IPV4'>"
p320
sS'IS_LENGTH'
p321
S"<class 'gluon.validators.IS_LENGTH'>"
p322
sS'IS_IPV6'
p323
S"<class 'gluon.validators.IS_IPV6'>"
p324
sS'XML'
p325
S"<class 'gluon.html.XML'>"
p326
sS'Wiki'
p327
S"<class 'gluon.tools.Wiki'>"
p328
sS'B'
S"<class 'gluon.html.B'>"
p329
sS'IMG'
p330
S"<class 'gluon.html.IMG'>"
p331
sS'SQLTABLE'
p332
S"<class 'gluon.sqlhtml.SQLTABLE'>"
p333
sS'IS_MATCH'
p334
S"<class 'gluon.validators.IS_MATCH'>"
p335
sS'IS_ALPHANUMERIC'
p336
S"<class 'gluon.validators.IS_ALPHANUMERIC'>"
p337
sS'SPAN'
p338
S"<class 'gluon.html.SPAN'>"
p339
sS'IS_JSON'
p340
S"<class 'gluon.validators.IS_JSON'>"
p341
sS'IS_IPADDRESS'
p342
S"<class 'gluon.validators.IS_IPADDRESS'>"
p343
sS'IS_SLUG'
p344
S"<class 'gluon.validators.IS_SLUG'>"
p345
sS'check_output'
p346
S'<function check_output>'
p347
sS'BEAUTIFY'
p348
S"<class 'gluon.html.BEAUTIFY'>"
p349
sS'META'
p350
S"<class 'gluon.html.META'>"
p351
sS'SQLDB'
p352
S"<class 'pydal.base.DAL'>"
p353
sS'fetch'
p354
S'<function fetch>'
p355
sS'IS_DATE'
p356
S"<class 'gluon.validators.IS_DATE'>"
p357
sS'IS_EMAIL'
p358
S"<class 'gluon.validators.IS_EMAIL'>"
p359
sS'middle_column'
p360
S"'col-md-12'"
p361
sS'IS_NOT_EMPTY'
p362
S"<class 'gluon.validators.IS_NOT_EMPTY'>"
p363
sS'IS_FLOAT_IN_RANGE'
p364
S"<class 'gluon.validators.IS_FLOAT_IN_RANGE'>"
p365
sS'TBODY'
p366
S"<class 'gluon.html.TBODY'>"
p367
sS'CAT'
p368
S"<class 'gluon.html.CAT'>"
p369
sS'Field'
p370
S"<class 'pydal.objects.Field'>"
p371
sS'check_submission'
p372
S'<function check_submission>'
p373
sS'IS_LIST_OF_EMAILS'
p374
S"<class 'gluon.validators.IS_LIST_OF_EMAILS'>"
p375
sS'Mail'
p376
S"<class 'gluon.tools.Mail'>"
p377
sS'DIV'
p378
S"<class 'gluon.html.DIV'>"
p379
sS'LEGEND'
p380
S"<class 'gluon.html.LEGEND'>"
p381
sS'form'
p382
S'<gluon.sqlhtml.SQLFORM object>'
p383
sS'compile_code'
p384
S'<function compile_code>'
p385
sS'DAL'
p386
S"<class 'pydal.base.DAL'>"
p387
sS'ASSIGNJS'
p388
S'<function ASSIGNJS>'
p389
sS'TR'
p390
S"<class 'gluon.html.TR'>"
p391
sS'LI'
p392
S"<class 'gluon.html.LI'>"
p393
sS'right_sidebar_enabled'
p394
g149
sS'TH'
p395
S"<class 'gluon.html.TH'>"
p396
sS'TD'
p397
S"<class 'gluon.html.TD'>"
p398
sS'PluginManager'
p399
S"<class 'gluon.tools.PluginManager'>"
p400
sS'IS_URL'
p401
S"<class 'gluon.validators.IS_URL'>"
p402
sS'A'
S"<class 'gluon.html.A'>"
p403
sS'HEAD'
p404
S"<class 'gluon.html.HEAD'>"
p405
sS'IS_DATETIME_IN_RANGE'
p406
S"<class 'gluon.validators.IS_DATETIME_IN_RANGE'>"
p407
sS'FORM'
p408
S"<class 'gluon.html.FORM'>"
p409
sS'I'
S"<class 'gluon.html.I'>"
p410
sS'problems'
p411
S'<function problem>'
p412
sS'CalledProcessError'
p413
S"<class 'subprocess.CalledProcessError'>"
p414
sS'LANGUAGES'
p415
S"['GNU G++ 4.3', 'GNU GCC 4.3', 'GNU GCJ']"
p416
sS'IS_NOT_IN_DB'
p417
S"<class 'gluon.validators.IS_NOT_IN_DB'>"
p418
sS'eval'
p419
S'<function eval>'
p420
sS'check_call'
p421
S'<function check_call>'
p422
sg123
S"<Storage {'body': <cStringIO.StringO object at 0...0x7f1ccbc20e60>, 'view': 'default/problem.html'}>"
p423
sS'THEAD'
p424
S"<class 'gluon.html.THEAD'>"
p425
sS'ANY_OF'
p426
S"<class 'gluon.validators.ANY_OF'>"
p427
sS'IS_NULL_OR'
p428
S"<class 'gluon.validators.IS_EMPTY_OR'>"
p429
sS'COLGROUP'
p430
S"<class 'gluon.html.COLGROUP'>"
p431
sg56
S"<Storage {'_vars': None, 'function': 'problem', ...ocuments/Project_OJ/Redefined/applications/oj/'}>"
p432
sS'IS_EXPR'
p433
S"<class 'gluon.validators.IS_EXPR'>"
p434
sS'T'
S'<gluon.languages.translator object>'
p435
sS'IS_IN_SET'
p436
S"<class 'gluon.validators.IS_IN_SET'>"
p437
sS'IS_UPLOAD_FILENAME'
p438
S"<class 'gluon.validators.IS_UPLOAD_FILENAME'>"
p439
sS'LANG_NICK'
p440
S"['CPP', 'C', 'JAVA']"
p441
sS'TT'
p442
S"<class 'gluon.html.TT'>"
p443
sS'IS_DECIMAL_IN_RANGE'
p444
S"<class 'gluon.validators.IS_DECIMAL_IN_RANGE'>"
p445
sssS'traceback'
p446
S'Traceback (most recent call last):\n  File "/home/sourav/Documents/Project_OJ/Redefined/gluon/restricted.py", line 227, in restricted\n    exec ccode in environment\n  File "/home/sourav/Documents/Project_OJ/Redefined/applications/oj/views/default/problem.html", line 75, in <module>\nAttributeError: \'function\' object has no attribute \'think\'\n'
p447
s.